(dp0
S'4/4/2000'
p1
(lp2
S'First Natl Bancshares,LA'
p3
aS'Regions Financial Corp,AL'
p4
asS'1/14/2009'
p5
(lp6
S'Apple Valley Bank & Trust Co'
p7
aS'New England Bancshares Inc,CT'
p8
asS'3/4/2004'
p9
(lp10
S'Liberty National Bank,TX'
p11
aS'First Finl Bankshares Inc,TX'
p12
asS'3/4/2000'
p13
(lp14
S'Commerce Natl,Winter Park,FL'
p15
aS'Wachovia Corp,Winston-Salem,NC'
p16
asS'4/22/1987'
p17
(lp18
S'First Springfield National,TN'
p19
aS'Dominion Bankshares,Roanoke,VA'
p20
asS'3/5/2004'
p21
(lp22
S'North Bancorp,Gaylord,MI'
p23
aS'Independent Bank Corp'
p24
asS'3/5/2007'
p25
(lp26
S'Acuity Bank,Sheboygan,WI'
p27
aS'First Manitowoc Bancorp Inc'
p28
asS'3/5/2001'
p29
(lp30
S'James River Bankshares Inc,VA'
p31
aS'First Virginia Banks Inc,VA'
p32
asS'3/5/2003'
p33
(lp34
S'Dallas Bancshares Corp'
p35
aS'Prosperity Bancshares Inc,TX'
p36
asS'10/16/1989'
p37
(lp38
S'Central of Illinois Inc'
p39
aS'AMCORE Financial Inc'
p40
asS'10/16/1986'
p41
(lp42
S'Granite Svg Bk&Trust,Barre,VT'
p43
aS'Howard Bancorp,Burlington,VT'
p44
asS'4/30/1990'
p45
(lp46
S'De Anza Holding Corp'
p47
aS'Citicorp'
p48
asS'10/16/1984'
p49
(lp50
S'City National Bancshares Inc,'
p51
aS'First Commerce,New Orleans,LA'
p52
asS'10/16/1985'
p53
(lp54
S'Citizens DeKalb Bk,Clarkston'
p55
aS'First Union Corp,Charlotte,NC'
p56
asS'6/1/2006'
p57
(lp58
S'Vail Banks Inc,Vail,Colorado'
p59
aS'US Bancorp,Minneapolis,MN'
p60
asS'11/12/2003'
p61
(lp62
S'Midstate Bancorp Inc,Felton,DE'
p63
aS'Shore Bancshares Inc'
p64
asS'9/2/1987'
p65
(lp66
S'First Place Financial Corp'
p67
aS'Magna Group Inc,St. Louis,MO'
p68
asS'9/2/1986'
p69
(lp70
S'Third Natl Corp,Nashville,TN'
p71
aS'SunTrust Banks Inc,Atlanta,GA'
p72
asS'11/5/2003'
p73
(lp74
S'FNB Bancshares Inc,SC'
p75
aS'American Cmnty Bancshares Inc'
p76
asS'5/28/2002'
p77
(lp78
S'Palm Beach National Holding Co'
p79
aS'Colonial BancGroup Inc'
p80
asS'5/28/2003'
p81
(lp82
S'High Country Financial Corp,NC'
p83
aS'Yadkin Valley Bank & Trust Co'
p84
asS'5/28/2008'
p85
(lp86
S'Service 1st Bancorp,CA'
p87
aS'Central Valley Community'
p88
asS'9/22/1999'
p89
(lp90
S'Pacific Bank NA,CA'
p91
aS'City National Corp'
p92
asS'9/22/1998'
p93
(lp94
S'Community Bank of Naples'
p95
aS'Alabama Natl BanCorp,AL'
p96
asS'9/22/1997'
p97
(lp98
S'Pacific Bay Bank,San Pablo,CA'
p99
aS'First Banks America Inc,TX'
p100
asS'9/22/1995'
p101
(lp102
S'Weatherford Natl Bankshares'
p103
ag12
asS'9/22/1994'
p104
(lp105
S'Community Bancshares Inc,TN'
p106
aS'First Tennessee National Corp'
p107
asS'8/9/2010'
p108
(lp109
S'Comm Bancorp Inc'
p110
aS'FNB Corp,Naples,Hermitage,PA'
p111
asS'12/8/2005'
p112
(lp113
S'DeKalb Bankshares Inc,SC'
p114
aS'First Community Corp'
p115
asS'1/16/1992'
p116
(lp117
S'Bank Shares Inc'
p118
aS'First Bank Sys,Minneapolis,MN'
p119
asS'3/6/2000'
p120
(lp121
S'North Coast Bank,Windsor,CA'
p122
aS'American River Holdings,CA'
p123
asS'3/6/2005'
p124
(lp125
S'Hibernia Corp,New Orleans,LA'
p126
aS'Capital One Financial Corp'
p127
asS'3/6/2006'
p128
(lp129
S'Kensington Bankshares Inc,FL'
p130
aS'Banc Corp,Birmingham,Alabama'
p131
asS'3/6/2009'
p132
(lp133
S'Discovery Bancorp'
p134
aS'CommerceWest Bank NA'
p135
asS'2/26/2013'
p136
(lp137
S'Wheatland Bankshares Inc'
p138
aS'Glacier Bancorp Inc,MT'
p139
asS'11/24/1993'
p140
(lp141
S'Central State Bank,High Pt,NC'
p142
aS'First Bancorp,Troy,NC'
p143
asS'11/24/1992'
p144
(lp145
S'ECSB Holding Co Inc'
p146
aS'Central Bancshares of South,AL'
p147
asS'10/29/2014'
p148
(lp149
S'ESB Financial Corp'
p150
aS'WesBanco Inc,Wheeling,WV'
p151
asS'10/29/2012'
p152
(lp153
S'First Place Bank'
p154
aS'Talmer Bancorp Inc,Troy,MI'
p155
asS'9/28/1987'
p156
(lp157
S'Freedom Finl, Charlestown, IN'
p158
aS'Liberty Natl Bancorp,Kentucky'
p159
asS'8/31/2010'
p160
(lp161
S'Southwest Capital Bank NA'
p162
aS'Stonegate Bank,Fort'
p163
asS'8/31/2011'
p164
(lp165
S'Beach Business Bank,CA'
p166
aS'First PacTrust Bancorp Inc'
p167
asS'9/4/1998'
p168
(lp169
S'Monocacy Bancshares Inc'
p170
aS'F&M Bancorp,Frederick,MD'
p171
asS'10/5/1993'
p172
(lp173
S'Western Indiana Bancorp'
p174
aS'Old Natl Bancorp,Evansville,IN'
p175
asS'7/24/1985'
p176
(lp177
S'Pan American Banks,Miami,FL'
p178
aS'NCNB Corp,Charlotte,NC'
p179
asS'9/4/1990'
p180
(lp181
S'Northwestern Bank Corp,MI'
p182
aS'First Michigan Bank Corp,MI'
p183
asS'6/18/1998'
p184
(lp185
S'NSS Bancorp,Norwalk,CT'
p186
aS'Summit Bancorp,Princeton,NJ'
p187
asS'7/19/2012'
p188
(lp189
S'Fidelity Bancorp,Pittsburgh,PA'
p190
ag151
asS'2/10/1999'
p191
(lp192
S'Northeast Bancorp,MD'
p193
aS'Sterling Financial Corp'
p194
asS'4/7/2006'
p195
(lp196
S'Washington Mutual Inc'
p197
aS'Northway Financial Inc'
p198
asS'7/24/1987'
p199
(lp200
S'Marine Corp, Milwaukee,WI'
p201
aS'BANC ONE Corp,Columbus,Ohio'
p202
asS'4/7/2003'
p203
(lp204
S'Sequioa Bancshares,Bethesda,MD'
p205
aS'United Bankshares Inc,WV'
p206
asS'6/24/2005'
p207
(lp208
S'Franklin Bank,Nutley,NJ'
p209
aS'Interchange Finl Svcs,NJ'
p210
asS'2/10/1995'
p211
(lp212
S'Delaware National Bankshares'
p213
aS'Fulton Financial Corp'
p214
asS'2/10/1994'
p215
(lp216
S'First Southeast Banking Corp'
p217
aS'Firstar Corp,Milwaukee, Wi'
p218
asS'4/7/2009'
p219
(lp220
S'Natl City Corp,OH-Branch Bkg'
p221
aS'First Niagara Finl Group Inc'
p222
asS'6/28/1985'
p223
(lp224
S'Calhoun First National Bank'
p225
aS'First RR & Banking,Augusta,GA'
p226
asS'2/3/1986'
p227
(lp228
S'First Bank of Colonia,NJ'
p229
aS'Commercial Bancshares Inc,NJ'
p230
asS'10/20/1993'
p231
(lp232
S'Lincolnland Bancshares Inc'
p233
aS'Ambanc Corp,Vincennes,Indiana'
p234
asS'10/20/1994'
p235
(lp236
S'First Commercial Bancshares,LA'
p237
ag4
asS'10/20/1995'
p238
(lp239
S'Palmer National Bancorp Inc'
p240
aS'George Mason Bankshares Inc'
p241
asS'10/20/1997'
p242
(lp243
S'First Republic Bancshares,LA'
p244
aS'First United Bancshares Inc,AR'
p245
asS'10/20/1998'
p246
(lp247
S'Big Sky Wstn Bk,Big Sky,MT'
p248
ag139
asS'8/27/1997'
p249
(lp250
S'Community Bancorp,Pullman,WA'
p251
aS'United Security Bancorp,WA'
p252
asS'8/27/1993'
p253
(lp254
S'First Peoples National Bank,'
p255
aS'First Fidelity Bancorp,NJ'
p256
asS'8/27/1992'
p257
(lp258
S'First Dubuque Corp,Dubuque,IA'
p259
aS'Hawkeye Bancorp'
p260
asS'3/18/1987'
p261
(lp262
S'Norstar Bancorp,Albany,NY'
p263
aS'Fleet Finl Group,Providence,RI'
p264
asS'7/31/2003'
p265
(lp266
S'Cmnty Bank of Grants Pass,OR'
p267
aS'Cascade Bancorp,Bend,OR'
p268
asS'7/31/2001'
p269
(lp270
S'Natl Bancshares Corp of TX,TX'
p271
aS'Intl Bancshares Corp,TX'
p272
asS'12/14/1999'
p273
(lp274
S'UB Bancshares Inc,Bucyrus,OH'
p275
aS'Park National Corp,OH'
p276
asS'12/14/1998'
p277
(lp278
S'First Western Bancorp Inc,PA'
p279
aS'Sky Financial Group Inc,'
p280
asS'3/11/2003'
p281
(lp282
S'RVB Bancshares Inc,AR'
p283
aS'Bank of the Ozarks Inc'
p284
asS'12/14/1993'
p285
(lp286
S'National Bank of Commerce'
p287
aS'Premier Bancorp,Baton Rouge,LA'
p288
asS'12/14/1994'
p289
(lp290
S'Planters Bank & Trust Co,AR'
p291
aS'Union Planters Corp,Memphis,TN'
p292
asS'7/3/1989'
p293
(lp294
S'Monroe City Bank,Missouri'
p295
aS'United Missouri Bancshares'
p296
asS'9/11/1984'
p297
(lp298
S'Independence Bank Group Inc'
p299
aS'Marine Corp, Milwaukee,WI'
p300
asS'4/29/2014'
p301
(lp302
S'Guernsey Bancorp Inc,Ohio'
p303
aS'First Finl Bancorp,Ohio'
p304
asS'10/28/1986'
p305
(lp306
S'Nevada Natl Bancorp,Reno,NV'
p307
aS'Security Pacific,Los Angeles'
p308
asS'2/28/1992'
p309
(lp310
S'Security Pacific Natl-33 Brchs'
p311
aS'Union Bank,San Francisco,CA'
p312
asS'2/28/1990'
p313
(lp314
S'First Interstate Bancorp-3 NM'
p315
aS'United New Mexico Financial'
p316
asS'12/5/1984'
p317
(lp318
S'Heritage Bancorporation, NJ'
p319
aS'First National State Bancorp'
p320
asS'3/26/1986'
p321
(lp322
S'Security Natl,Consumer Svgs,MA'
p323
aS'Bank of New England,Boston,MA'
p324
asS'7/30/1993'
p325
(lp326
S'First AmFed Corp,Huntsville,AL'
p327
ag80
asS'12/27/1985'
p328
(lp329
S'Dartmouth National Corp of NH'
p330
aS'Indian Head Banks Inc, Nashua'
p331
asS'7/30/1998'
p332
(lp333
S'First Guaranty Bank,Hammond'
p334
aS'Hibernia Corp,New Orleans,LA'
p335
asS'7/30/1999'
p336
(lp337
S'Letchworth Independent Bancshs'
p338
aS'Tompkins TrustCo Inc,NY'
p339
asS'8/1/1997'
p340
(lp341
S'Colonial Bkg Co,Grants Pass,OR'
p342
aS'VRB Bancorp, Rogue River, OR'
p343
asS'8/1/1994'
p344
(lp345
S'Western Community Bank,CA'
p346
aS'Bank of San Bernardino'
p347
asS'2/26/1998'
p348
(lp349
S'Trustbank Financial Corp'
p350
aS'Northern Trust Corp'
p351
asS'6/14/2013'
p352
(lp353
S'Wilton Bank,Wilton,CT'
p354
aS'Bank of New Canaan'
p355
asS'6/14/2012'
p356
(lp357
S'Marathon State Bank,Marathon,W'
p358
aS'PSB Hldg,Wausau,WI'
p359
asS'7/12/2013'
p360
(lp361
S'Heritage Community Bank,NJ'
p362
aS'First Bank,Hamilton,New Jersey'
p363
asS'4/5/1994'
p364
(lp365
S'Lockwood Banc Group Inc'
p366
aS'Comerica Inc'
p367
asS'9/13/1996'
p368
(lp369
S'Midland Bancorporation Inc,NJ'
p370
aS'Valley National Bancorp,NJ'
p371
asS'9/13/1995'
p372
(lp373
S'Centerpoint Bank,Bedford,NH'
p374
aS'Community Bankshares,NH'
p375
asS'9/13/1993'
p376
(lp377
S'Peoples Bank of Western'
p378
aS'First Commonwealth Finl Corp'
p379
asS'9/9/2010'
p380
(lp381
S'Sam Houston Financial Corp'
p382
ag12
asS'2/12/2001'
p383
(lp384
S'Euro Amer Bank,Uniondale,NY'
p385
aS'Citigroup Inc'
p386
asS'7/6/2005'
p387
(lp388
S'Amegy Bancorp Inc,TX'
p389
aS'Zions Bancorp'
p390
asS'3/13/1997'
p391
(lp392
S'Fallbrook Natl Bk,Fallbrook,CA'
p393
aS'Bank of Commerce,San Diego,CA'
p394
asS'3/13/1996'
p395
(lp396
S'Rockdale Community Bank,GA'
p397
ag4
asS'3/13/1990'
p398
(lp399
S'Plainfield National Bank'
p400
aS'First Midwest Bancorp Inc'
p401
asS'6/15/1989'
p402
(lp403
S'Southwest Financial Corp'
p404
aS'Fourth Financial Corp'
p405
asS'6/15/1988'
p406
(lp407
S'Quad Cities 1st,Rock Island'
p408
aS'First of Amer Bk,Kalamazoo,MI'
p409
asS'9/8/1997'
p410
(lp411
S'TB&T Bancshares,Brownsville,TX'
p412
aS'Texas Regional Bancshares,TX'
p413
asS'11/12/2007'
p414
(lp415
S'Sleepy Hollow Bancorp Inc'
p416
aS'Tompkins Financial Corp'
p417
asS'4/1/1998'
p418
(lp419
S'CFX Corp,Keene,NH-Branches(5)'
p420
aS'First Essex Bancorp Inc,MA'
p421
asS'4/1/1999'
p422
(lp423
S'CNBT Bancshares Inc,Bellaire'
p424
aS'SouthTrust Corp,Birmingham,AL'
p425
asS'4/1/1996'
p426
(lp427
S'St Bernard Bank & Trust Co'
p428
ag335
asS'4/1/1994'
p429
(lp430
S'Ithaca Bancorp Inc'
p431
aS'First Empire State Corp,NY'
p432
asS'6/9/2005'
p433
(lp434
S'Pacific Liberty Bank,CA'
p435
aS'First Community Bancorp Inc'
p436
asS'7/16/2002'
p437
(lp438
S'Carolina Community Bankshares'
p439
ag143
asS'6/9/2003'
p440
(lp441
S'Grange National Banc Corp,PA'
p442
aS'Community Bank System Inc'
p443
asS'7/16/2004'
p444
(lp445
S'Riggs Natl Corp,Washington,DC'
p446
aS'PNC Finl Svcs Grp Inc'
p447
asS'7/16/2009'
p448
(lp449
S'1st Pacific Bk of CA,LaJolla,'
p450
aS'First Business Bank NA,CA'
p451
asS'6/9/2008'
p452
(lp453
S'Parish National Corp'
p454
aS'Whitney Holding Corp,Louisiana'
p455
asS'12/31/2003'
p456
(lp457
S'PCB Bancorp,Johnson City,TN'
p458
aS'First Cmnty Bancshares Inc'
p459
asS'12/31/2005'
p460
(lp461
S'Wshington Mutual-Brs(2),MT'
p462
ag198
asS'6/27/1991'
p463
(lp464
S'Gainer Corp'
p465
aS'NBD Bancorp,Detroit,Michigan'
p466
asS'12/31/2008'
p467
(lp468
S'Abigail Adams National Bancorp'
p469
aS'Premier Finl Bancorp,WV'
p470
asS'6/27/1996'
p471
(lp472
S'Financial Bancshares Inc,MO'
p473
ag292
asS'6/27/1994'
p474
(lp475
S'Metro Bancshares Inc'
p476
aS'North Fork Bancorp,Melville,NY'
p477
asS'7/28/1999'
p478
(lp479
S'Premier BancShares,Atlanta,GA'
p480
aS'BB&T Corp'
p481
asS'7/28/1998'
p482
(lp483
S'Northern Lehigh Bancorp Inc,PA'
p484
aS'Harleysville National Corp,PA'
p485
asS'2/4/1986'
p486
(lp487
S'Chemung Financial,Elmira,NY'
p488
aS'Norstar Bancorp,Albany,NY'
p489
asS'7/28/1994'
p490
(lp491
S'FirstBank of Texarkana,TX'
p492
ag245
asS'7/28/1993'
p493
(lp494
S'FirstBank Group Inc'
p495
aS'Worthen Banking,Little Rock,AR'
p496
asS'9/30/2005'
p497
(lp498
S'Cavalry Bancorp Inc,Murfreesbo'
p499
aS'Pinnacle Financial Partners'
p500
asS'9/5/2000'
p501
(lp502
S'Firstier Corp'
p503
aS'Compass Bancshares Inc,AL'
p504
asS'12/1/1988'
p505
(lp506
S'Central Banking System Inc'
p507
ag308
asS'3/29/1994'
p508
(lp509
S'Planters Bank,Tunica,MS'
p510
ag107
asS'9/5/2008'
p511
(lp512
S'State of Franklin Bancshares'
p513
aS'Jefferson Bancshares Inc'
p514
asS'7/23/2001'
p515
(lp516
S'Commerce Exchange Corp'
p517
aS'Second Bancorp Inc,Warren,OH'
p518
asS'7/23/2002'
p519
(lp520
S'Trustco Holding Inc'
p521
aS'MountainBank Financial Corp'
p522
asS'11/28/1986'
p523
(lp524
S'Westamerica Bancorp,California'
p525
ag308
asS'11/28/1984'
p526
(lp527
g319
aS'United Jersey Bks,Princeton,NJ'
p528
asS'11/28/1985'
p529
(lp530
S'Lowell National Bank,Lowell,IN'
p531
aS'Indiana National Corp'
p532
asS'9/12/1996'
p533
(lp534
S'Prairie Security Bank, Yelm,'
p535
aS'First Community Financial,WA'
p536
asS'9/12/1997'
p537
(lp538
S'First National Bank Shares'
p539
aS'Commercial Federal,Omaha,NE'
p540
asS'10/23/2006'
p541
(lp542
S'St Joseph Capital Corp'
p543
ag175
asS'9/12/1991'
p544
(lp545
S'Security Bancorp,Southgate,MI'
p546
ag409
asS'4/23/1999'
p547
(lp548
S'First American Financial,TX'
p549
aS'Guaranty Bancshares Inc'
p550
asS'10/17/1997'
p551
(lp552
S'Freedom Bancshares,Kansas'
p553
aS'MNB Bancshares Inc,KS'
p554
asS'10/17/1994'
p555
(lp556
S'American Union Bank,Union,NJ'
p557
ag371
asS'10/10/1991'
p558
(lp559
S'Liberty Bankshares,WV'
p560
ag206
asS'1/27/1988'
p561
(lp562
S'First Kentucky National Corp'
p563
aS'National City Corp,Cleveland'
p564
asS'7/22/1986'
p565
(lp566
S'Merchants Bancorp,Allentown,PA'
p567
aS'Fidelcor Inc,Philadelphia,PA'
p568
asS'7/22/1987'
p569
(lp570
S'West Florida Bank,Pensacola'
p571
aS'Southeast Banking Corp,Miami'
p572
asS'10/10/1995'
p573
(lp574
S'Meridian Bancorp Inc'
p575
aS'CoreStates Financial Corp,PA'
p576
asS'5/13/2013'
p577
(lp578
S'CFS Bancorp Inc'
p579
aS'First Merchants Corp'
p580
asS'7/22/1988'
p581
(lp582
S'United Southern Corp'
p583
ag292
asS'6/17/2004'
p584
(lp585
S'First Federal Bank of LA'
p586
aS'First Allen Parish Bancorp Inc'
p587
asS'1/27/1987'
p588
(lp589
S'First United Financial Svcs,IL'
p590
aS'First Chicago Corp,Illinois'
p591
asS'6/17/2002'
p592
(lp593
S'Mississippi Valley Bancshares'
p594
aS'Marshall & Ilsley Corp,WI'
p595
asS'6/17/2001'
p596
(lp597
S'Ledger Capital Corp'
p598
aS'Anchor BanCorp Wisconsin Inc'
p599
asS'5/8/1998'
p600
(lp601
S'Kersey Bancorp Inc'
p602
ag390
asS'5/8/1992'
p603
(lp604
S'City National Bancshares Inc'
p605
ag147
asS'11/17/2003'
p606
(lp607
S'Alliance Bank of Baton Rouge'
p608
aS'IBERIABANK Corp'
p609
asS'8/26/1992'
p610
(lp611
S'First City Inc'
p612
aS'First Commercial Corp,Arkansas'
p613
asS'8/26/1993'
p614
(lp615
S'Peoples Bancorp of Worcester'
p616
aS'Shawmut National Corp'
p617
asS'8/26/1991'
p618
(lp619
S'Northwestern National Bank,WA'
p620
aS'Puget Sound Bancorp,Tacoma,WA'
p621
asS'2/23/2000'
p622
(lp623
S'Skylands Financial Corp'
p624
ag214
asS'8/26/1994'
p625
(lp626
S'Superior Financial Corp,MI'
p627
ag183
asS'8/26/1998'
p628
(lp629
S'MainStreet Financial Corp'
p630
aS'BB&T Corp.'
p631
asS'7/2/2001'
p632
(lp633
S'Rusk County Bancshares Inc'
p634
aS'Henderson Citizens Bancshares'
p635
asS'7/2/2003'
p636
(lp637
S'Advantage National Bancorp,IL'
p638
aS'Wintrust Financial Corp,IL'
p639
asS'7/2/2002'
p640
(lp641
S'San Juan Bancshares Inc'
p642
ag413
asS'7/2/2004'
p643
(lp644
S'Jackson Federal Bank,CA'
p645
aS'UnionBanCal Corp,CA'
p646
asS'7/2/2007'
p647
(lp648
S'First Mutual Bancshares Inc'
p649
aS'Washington Federal Inc'
p650
asS'3/23/2006'
p651
(lp652
S'NorthStar Bancshares Inc'
p653
aS'Enterprise Finl Svcs Corp'
p654
asS'1/15/1997'
p655
(lp656
S'Central & Southern Holding,GA'
p657
aS'Premier BancShares,Atlanta,GA'
p658
asS'1/15/1998'
p659
(lp660
S'Heritage Financial Services'
p661
ag401
asS'6/22/1994'
p662
(lp663
S'Sacramento First Natl Bk,CA'
p664
aS'Business & Professional Bk,CA'
p665
asS'1/7/1986'
p666
(lp667
S'Commercial Bank,Bel Air, MD'
p668
ag32
asS'1/14/2015'
p669
(lp670
S'Manhattan Bancorp'
p671
aS'Plaza Bank,Irvine,California'
p672
asS'12/22/2010'
p673
(lp674
S'Whitney Holding Corp,Louisiana'
p675
aS'Hancock Holding Co'
p676
asS'7/19/2004'
p677
(lp678
S'First City Bank,CT'
p679
aS'Webster Financial Corp'
p680
asS'7/19/2007'
p681
(lp682
S'Sterling Financial Corp'
p683
ag447
asS'4/22/1998'
p684
(lp685
S'Peoples Bank,Dickson,Tennesee'
p686
aS'First American Corp,Tennessee'
p687
asS'4/22/1999'
p688
(lp689
S'Harlingen Bancshares Inc,TX'
p690
ag413
asS'10/2/2000'
p691
(lp692
S'Summit Bancorp,Princeton,NJ'
p693
aS'FleetBoston Financial Corp,MA'
p694
asS'4/4/1995'
p695
(lp696
S'Farmers & Merchants Bank,AL'
p697
ag80
asS'9/16/1985'
p698
(lp699
S'Purdue National Corp'
p700
ag202
asS'4/4/1996'
p701
(lp702
S'Navarre Bank Deposit Co,OH'
p703
aS'Citizens Bancshares Inc,OH'
p704
asS'10/16/1998'
p705
(lp706
S'Sterling Bancorp,Baltimore,MD'
p707
aS'Mason-Dixon Bancshares,MD'
p708
asS'1/29/2013'
p709
(lp710
S'Somerset Hills Bancorp'
p711
aS'Lakeland Bancorp Inc'
p712
asS'10/16/1997'
p713
(lp714
S'Guaranty State Bancorp,NC'
p715
aS'Triangle Bancorp,Raleigh,NC'
p716
asS'3/19/1998'
p717
(lp718
S'Bank of South Windsor,Windsor'
p719
aS'New England Cmnty Bancorp,CT'
p720
asS'7/16/1985'
p721
(lp722
S'Union Trust Bancorp'
p723
aS'Bank of Virginia Co'
p724
asS'6/28/2006'
p725
(lp726
S'Valley Bancorp'
p727
aS'Community Bancorp NV'
p728
asS'4/20/2006'
p729
(lp730
S'Rancho Bank'
p731
aS'Vineyard National Bancorp'
p732
asS'4/20/2005'
p733
(lp734
S'Horizon Capital Bk,Houston,TX'
p735
aS'Cullen/Frost Bankers Inc'
p736
asS'4/20/2004'
p737
(lp738
S'Sun Bancorp Inc,Selinsgrove,PA'
p739
aS'Omega Financial Corp,PA'
p740
asS'8/21/2000'
p741
(lp742
g424
aS'BOK Financial Corp'
p743
asS'9/10/1996'
p744
(lp745
S'Bank of Stapleton,Stapleton,GA'
p746
aS'Allied Bankshares Inc,GA'
p747
asS'8/21/2003'
p748
(lp749
S'United National Bancorp,NJ'
p750
ag447
asS'3/2/1994'
p751
(lp752
S'Pioneer Financial,Malden,MA'
p753
aS'Bank of Boston Corp,Boston,MA'
p754
asS'5/19/1994'
p755
(lp756
S'Dalhart Bancshares Inc'
p757
aS"Boatmen's Bancshares,St Louis"
p758
asS'10/15/1997'
p759
(lp760
S'Upper Valley Bancorp Inc'
p761
aS'First Jermyn Corp,Jermyn,PA'
p762
asS'10/15/1991'
p763
(lp764
S'First Interstate of ND Inc'
p765
aS'Community First Bankshares,ND'
p766
asS'11/18/1992'
p767
(lp768
S'VerBanc Financial Corp'
p769
aS'Chittenden Corp,Burlington,VT'
p770
asS'1/29/1988'
p771
(lp772
S'OmniBank of CT Inc,Clinton'
p773
aS'NESB Corp'
p774
asS'9/22/1988'
p775
(lp776
S'Bank of Delaware, Wilmington'
p777
aS'PNC Financial,Pittsburgh,PA'
p778
asS'11/18/1997'
p779
(lp780
S'Raymondville Bancorp Inc,TX'
p781
ag413
asS'11/18/1994'
p782
(lp783
S'Greensboro National Bank'
p784
aS'Mutual Community Savings Bank'
p785
asS'4/19/1991'
p786
(lp787
S'Citadel Bk of Independence,MO'
p788
ag405
asS'9/22/1986'
p789
(lp790
S'North American Bancorp Inc'
p791
aS'Bank of New York Co Inc,NY'
p792
asS'8/9/2005'
p793
(lp794
S'Bridgeport Financial Corp,TX'
p795
ag12
asS'8/9/2006'
p796
(lp797
S'Pulaski Invesment Corp'
p798
ag609
asS'9/20/2002'
p799
(lp800
S'Bank of Coronado,Coronado,CA'
p801
ag436
asS'9/20/2000'
p802
(lp803
S'American Bank,Houston,TX'
p804
ag455
asS'9/20/2006'
p805
(lp806
S'Main Street Trust Inc,Il'
p807
aS'First Busey Corp,Urbana,Il'
p808
asS'3/17/1994'
p809
(lp810
S'First Community Bancshares,GA'
p811
ag4
asS'3/17/1997'
p812
(lp813
S'Bank Corp of Georgia,Macon,GA'
p814
aS'Century South Banks Inc,GA'
p815
asS'1/19/2012'
p816
(lp817
S'The Bank Arlington,Texas'
p818
aS'Prosperity Bancshares Inc'
p819
asS'2/24/2005'
p820
(lp821
S'Tarpon Coast Bancorp Inc,FL'
p822
ag808
asS'9/7/1993'
p823
(lp824
S'Pulaski Bancshares Inc'
p825
aS'F&M Bancorp,Kaukauna,WI'
p826
asS'5/17/1994'
p827
(lp828
S'Lakeside Bancshares Inc'
p829
ag52
asS'10/26/2004'
p830
(lp831
S'FirstCapital Bankers Inc,Texas'
p832
ag36
asS'10/4/2012'
p833
(lp834
S'Genala Banc Inc'
p835
ag284
asS'4/6/2005'
p836
(lp837
S'First Capital Bank Hldg.FL'
p838
aS'Coastal Banking Co Inc,SC'
p839
asS'4/6/2006'
p840
(lp841
S'Port City Capital Bank, NC'
p842
aS'Crescent Finl Corp,Cary,NC'
p843
asS'5/19/1998'
p844
(lp845
S'Northwest Bancshares,TX'
p846
aS'Gold Banc Corp Inc,Leawood,KS'
p847
asS'1/18/1985'
p848
(lp849
S'Michigan National Corp'
p850
ag367
asS'5/29/2007'
p851
(lp852
S'Bus First Natl Bk,CA'
p853
aS'Heritage Oaks Bancorp'
p854
asS'9/18/2012'
p855
(lp856
S'HPK Financial Corp'
p857
aS'Wintrust Financial Corp'
p858
asS'11/29/1994'
p859
(lp860
S'Financial Holdings Inc'
p861
aS'Mountain Parks Finl Corp,MN'
p862
asS'11/29/1995'
p863
(lp864
S'First Commercial Holding Corp'
p865
aS'Centura Bank Inc,NC'
p866
asS'11/29/1993'
p867
(lp868
S'Vinings Bank & Trust,Cobb,GA'
p869
aS'Summit National Bank'
p870
asS'11/29/1990'
p871
(lp872
S'First Colony Bancshares Inc,OH'
p873
aS'Prime Bancshares,Decatur,GA'
p874
asS'1/25/1985'
p875
(lp876
S'CharterCorp of Kansas City'
p877
ag758
asS'9/4/1985'
p878
(lp879
S'Commonwealth Trust Bancorp'
p880
aS'Huntington Bancshares Inc,OH'
p881
asS'9/4/1984'
p882
(lp883
S'Citizens Trust Co,Virginia'
p884
ag724
asS'11/11/2009'
p885
(lp886
S'First Bank-Asset Based Loan'
p887
aS'FirstMerit Corp'
p888
asS'8/8/2002'
p889
(lp890
S'Warren Bancorp Inc'
p891
aS'Banknorth Group Inc,ME'
p892
asS'2/10/1986'
p893
(lp894
S'Mid-Continental Bancorp,WI'
p895
aS'First Interstate Corp of WI'
p896
asS'5/16/2007'
p897
(lp898
S'East Penn Financial Corp'
p899
ag485
asS'5/16/2006'
p900
(lp901
S'Community Bancorp Inc'
p902
ag436
asS'5/16/2002'
p903
(lp904
S'Liberty Bancorp,Avenel,NJ'
p905
aS'New Southern Bank,Macon,GA'
p906
asS'5/16/2000'
p907
(lp908
S'Northfield Bancorp Inc'
p909
aS'Patapsco Bancorp Inc'
p910
asS'3/18/1999'
p911
(lp912
S'Pinnacle Banc Grp,Oak Brook,IL'
p913
aS'Old Kent Finl Corp,Michigan'
p914
asS'3/18/1991'
p915
(lp916
S'One Natl Bk,AR-8 Branches'
p917
ag496
asS'3/18/1992'
p918
(lp919
S'INB Financial Corp'
p920
ag466
asS'3/18/1993'
p921
(lp922
S'United Bank NA,Lancaster,TX'
p923
aS'Kilgore First National BK,TX'
p924
asS'3/18/1997'
p925
(lp926
S'Peoples Bk of Elkton,Elkton,MD'
p927
ag214
asS'10/14/2002'
p928
(lp929
S'First Bank of Central Jersey'
p930
aS'Synergy Financial Group Inc'
p931
asS'10/14/2003'
p932
(lp933
S'West Michigan Financial Corp'
p934
aS'Fentura Financial,Fenton,MI'
p935
asS'11/19/2004'
p936
(lp937
S'Gold Country Financial,CA'
p938
aS'Western Sierra Bancorp,CA'
p939
asS'11/19/2001'
p940
(lp941
S'Richfield State Agency Inc'
p942
ag595
asS'5/22/1997'
p943
(lp944
S'Sun State Capital,Las Vegas,NV'
p945
ag390
asS'5/22/1996'
p946
(lp947
S'Central Jersey Financial Corp'
p948
ag187
asS'5/22/1995'
p949
(lp950
S'Laurel Bancorp,Laurel,Maryland'
p951
aS'FCNB Corp,Frederick,MD'
p952
asS'11/1/1996'
p953
(lp954
S'Citi-Bancshares Inc'
p955
ag881
asS'11/17/1988'
p956
(lp957
S'Landmark Bank,La Habra,CA'
p958
aS'Eldorado Bancorp,Tustin,CA'
p959
asS'11/17/1989'
p960
(lp961
S'Warner Center Bk,CA'
p962
ag92
asS'11/17/1986'
p963
(lp964
S'First Bank,Troy,North Carolina'
p965
aS'Commonwealth Bancshares Corp'
p966
asS'5/22/1998'
p967
(lp968
S'1st Bancorp Vienna Inc,Vienna'
p969
aS'Natl City Bancshares Inc,IN'
p970
asS'4/29/2004'
p971
(lp972
S'GNB Bancshares Inc,TX'
p973
aS'Texas United Bancshares,TX'
p974
asS'4/29/2006'
p975
(lp976
S'Community Bancshares Inc'
p977
ag131
asS'4/29/2002'
p978
(lp979
S'First National Bk,San Diego,CA'
p980
ag436
asS'12/5/1994'
p981
(lp982
S'TC Bankshares Inc'
p983
aS'Mercantile Bancorp,St Louis,MO'
p984
asS'4/29/2009'
p985
(lp986
S'Cmnty First Bank,Corydon,IN'
p987
aS'First Svgs Finl Grp Inc,IN'
p988
asS'12/5/1997'
p989
(lp990
S'Capital State Bank Inc,WV'
p991
aS'South Branch Valley Bancorp,WV'
p992
asS'8/1/1989'
p993
(lp994
S'Investors Trust Financial Corp'
p995
aS'Barnett Banks,Jacksonville,FL'
p996
asS'3/15/1999'
p997
(lp998
S'Farmers State Bank,Illinois'
p999
aS'Illini Corp,Springfield,IL'
p1000
asS'1/6/1994'
p1001
(lp1002
S'Hallmark Bank & Trust Co,VA'
p1003
aS'F&M National,Winchester,VA'
p1004
asS'1/6/1995'
p1005
(lp1006
S'Shawnee Financial Services'
p1007
aS'Keystone Finl,Harrisburg,PA'
p1008
asS'12/27/1995'
p1009
(lp1010
S'Bank Land Co'
p1011
aS'Vectra Banking Corp,Denver,CO'
p1012
asS'1/6/1997'
p1013
(lp1014
S'Island National Bank & Tr,FL'
p1015
aS'1st United Bancorp,FL'
p1016
asS'8/1/1985'
p1017
(lp1018
S'First Connecticut Bancorp'
p1019
ag264
asS'2/5/1996'
p1020
(lp1021
S'Southwest Banks Inc'
p1022
aS'FNB Corp,Hermitage,PA'
p1023
asS'3/15/1990'
p1024
(lp1025
S'Independent Banks of Virginia'
p1026
aS'Signet Bkg Corp,Richmond,VA'
p1027
asS'2/16/1999'
p1028
(lp1029
S'Exchange Bank of Kingstree,Sc'
p1030
aS'First Citizens Bancorp SC'
p1031
asS'2/2/1995'
p1032
(lp1033
S'New Era Bank'
p1034
aS'United National Bancorp,NJ'
p1035
asS'2/16/1993'
p1036
(lp1037
S'South Alabama Bancorp,AL'
p1038
aS'Mobile National Corp'
p1039
asS'6/14/2007'
p1040
(lp1041
S'Cardinal State Bank'
p1042
aS'Yadkin Valley Financial Corp'
p1043
asS'6/14/2004'
p1044
(lp1045
S'Town Bankshares Ltd'
p1046
ag639
asS'6/14/2005'
p1047
(lp1048
S'CNB Bancorp,Gloversville,NY'
p1049
aS'NBT Bancorp Inc'
p1050
asS'2/16/1996'
p1051
(lp1052
S'Vancouver Bancorp,WA'
p1053
aS'West Coast Bancorp'
p1054
asS'6/14/2001'
p1055
(lp1056
S'Promistar Financial Corp'
p1057
ag1023
asS'4/5/1984'
p1058
(lp1059
S'IntraWest Financial,Denver,Co'
p1060
aS'Affiliated Bankshares of CO'
p1061
asS'9/7/1989'
p1062
(lp1063
S'Northern Virginia Banking Corp'
p1064
aS'Crestar Finl Corp,Richmond,VA'
p1065
asS'9/10/1987'
p1066
(lp1067
S'Greene County Bancshares Inc'
p1068
ag20
asS'1/28/2015'
p1069
(lp1070
S'Merchants & Southern Bank'
p1071
aS'Ameris Bancorp'
p1072
asS'3/30/1989'
p1073
(lp1074
S'Citizens & Southern Georgia'
p1075
ag179
asS'10/26/2015'
p1076
(lp1077
S'River Valley Bancorp'
p1078
aS'German American Bancorp,IN'
p1079
asS'1/8/2014'
p1080
(lp1081
S'United Bancorp Inc'
p1082
aS'Old National Bancorp'
p1083
asS'9/7/1987'
p1084
(lp1085
S'Heritage Bancorp,Glenville,WV'
p1086
ag206
asS'6/15/1995'
p1087
(lp1088
S'LaPorte State Bank,La Porte,TX'
p1089
aS'Charter Bancshares Inc'
p1090
asS'6/15/1990'
p1091
(lp1092
g366
aS'Michigan National Corp'
p1093
asS'6/21/2012'
p1094
(lp1095
S'Acacia Federal Savings Bank'
p1096
aS'Customers Bancorp Inc'
p1097
asS'9/24/2003'
p1098
(lp1099
S'First Capital Bancorp Inc,GA'
p1100
aS'CNB Holdings Inc,Alpharetta,GA'
p1101
asS'3/2/2015'
p1102
(lp1103
S'Square 1 Financial Inc'
p1104
aS'PacWest Bancorp'
p1105
asS'6/15/1998'
p1106
(lp1107
S'Whatcom State Bancorp Inc'
p1108
aS'First Svgs Bk of WA Bancorp'
p1109
asS'11/13/1985'
p1110
(lp1111
S'Capitol Bancorporation'
p1112
aS'Citizens Financial Group,RI'
p1113
asS'12/17/2007'
p1114
(lp1115
S'IBT Bancorp Inc,Pennsylvania'
p1116
aS'S&T Bancorp Inc,Indiana,PA'
p1117
asS'7/17/1992'
p1118
(lp1119
S'MNC Financial Inc'
p1120
aS'NationsBank Corp,Charlotte,NC'
p1121
asS'7/17/1998'
p1122
(lp1123
S'Bullsboro BancShares,GA'
p1124
ag4
asS'12/17/2004'
p1125
(lp1126
S'Red Oak Bank,Morristown,NJ'
p1127
aS'Center Bancorp Inc,Union,NJ'
p1128
asS'4/1/1988'
p1129
(lp1130
S'Universal Corp'
p1131
ag202
asS'4/1/1986'
p1132
(lp1133
S'Horry County Natl Bk, SC'
p1134
aS'Southern Natl,Winston-Salem,NC'
p1135
asS'7/16/2010'
p1136
(lp1137
S'The Bank of Currituck-Banking'
p1138
aS'TowneBank,Portsmouth,Virginia'
p1139
asS'6/18/1997'
p1140
(lp1141
S'Ballston Bancorp,Arlington,VA'
p1142
aS'Abigail Adams National Bancorp'
p1143
asS'6/27/1988'
p1144
(lp1145
S'Eastern Shore National Bank'
p1146
aS'Mercantile Bankshares Corp,MD'
p1147
asS'6/27/1989'
p1148
(lp1149
S'Central Financial Group Inc'
p1150
aS'Marine Corp,Springfield,IL'
p1151
asS'6/27/1985'
p1152
(lp1153
S'Fidelity Natl Finl,Baton Rouge'
p1154
ag335
asS'6/27/1986'
p1155
(lp1156
S'Independent Community Banks,FL'
p1157
aS'Citizens & Southern Georgia'
p1158
asS'9/17/1997'
p1159
(lp1160
S'Community Svgs Bk,Bristol,CT'
p1161
ag720
asS'9/17/1996'
p1162
(lp1163
S'Central Bancorp,Fort Forth,TX'
p1164
aS'Norwest Corp,Minneapolis,MN'
p1165
asS'10/1/1986'
p1166
(lp1167
S'Bank of Greer,South Carolina'
p1168
aS'United Carolina Bancshares'
p1169
asS'2/4/1997'
p1170
(lp1171
S'Penncore Finl Svcs,Newtown,PA'
p1172
aS'ML Bancorp,Villanova,PA'
p1173
asS'9/17/1998'
p1174
(lp1175
S'Prestige Financial Corp'
p1176
aS'Commerce Bancorp,New Jersey'
p1177
asS'2/4/1992'
p1178
(lp1179
S'Palmer Bancorp'
p1180
ag175
asS'9/13/1988'
p1181
(lp1182
S'Peoples Mid-Illinois Corp'
p1183
aS'Midwest Financial Group Inc'
p1184
asS'9/13/1989'
p1185
(lp1186
S'First Macomb Bancorp Inc'
p1187
ag881
asS'9/5/2013'
p1188
(lp1189
S'Florida Shores Bancorp Inc'
p1190
ag163
asS'12/1/1994'
p1191
(lp1192
S'Progressive Bancorp,Terrebonne'
p1193
ag335
asS'12/1/1995'
p1194
(lp1195
S'Greene Bancorp,Greene,Iowa'
p1196
aS'Lincoln Bancorp'
p1197
asS'12/1/1997'
p1198
(lp1199
S'First of Amer Bk,Kalamazoo,MI'
p1200
aS'Natl City Corp,Cleveland,Ohio'
p1201
asS'12/1/1990'
p1202
(lp1203
S'Rosendale Bancshares Inc'
p1204
aS'Marshall & Ilsley,Milwaukee,WI'
p1205
asS'10/24/2011'
p1206
(lp1207
S'Anderen Financial Inc'
p1208
aS'1st United Bancorp,Boca Raton'
p1209
asS'10/24/2012'
p1210
(lp1211
S'Century Bank,Eugene,Oregon'
p1212
aS'Pac Continental Corp,Eugene,OR'
p1213
asS'8/25/2014'
p1214
(lp1215
S'MainStreet BankShares Inc'
p1216
aS'American National Bankshares'
p1217
asS'6/17/2015'
p1218
(lp1219
S'Florida Business Bancgroup Inc'
p1220
aS'Home BancShares Inc'
p1221
asS'11/28/1994'
p1222
(lp1223
S'Abbott Bank Group Inc'
p1224
ag766
asS'9/27/1985'
p1225
(lp1226
S'South Sound National Bank'
p1227
aS'Rainier Bancorporation,WA'
p1228
asS'2/7/1996'
p1229
(lp1230
S'Twentieth Bancorp Inc'
p1231
aS'Horizon Bancorp,Beckley,WV'
p1232
asS'9/3/1996'
p1233
(lp1234
S'Homeland Bankshares Corp,Iowa'
p1235
ag68
asS'2/7/1994'
p1236
(lp1237
S'Tri-State Bank & Trust, IL'
p1238
aS'Northwest Illinois Bancorp'
p1239
asS'2/7/1995'
p1240
(lp1241
S'Tanglewood Bancshares'
p1242
ag351
asS'9/3/1993'
p1243
(lp1244
S'KSB Financial'
p1245
aS'Independent Bank Corp,MA'
p1246
asS'10/23/2014'
p1247
(lp1248
S'Community Banc-Corp of Sheboyg'
p1249
aS'Heartland Financial USA Inc'
p1250
asS'6/8/2005'
p1251
(lp1252
S'First United Bank,San Diego,CA'
p1253
aS'MetroCorp Bancshares Inc'
p1254
asS'4/10/1998'
p1255
(lp1256
S'Trans Finl,Bowling Green,KY'
p1257
aS'Star Banc Corp,Cincinnati,OH'
p1258
asS'6/8/2000'
p1259
(lp1260
S'Catskill Financial Corp,NY'
p1261
aS'Troy Financial Corp,Troy,NY'
p1262
asS'6/8/2001'
p1263
(lp1264
S'FleetBoston Finl Corp-Br(36)'
p1265
ag443
asS'4/10/1995'
p1266
(lp1267
S'Old North State Bank'
p1268
aS'Piedmont Bancshares Corp'
p1269
asS'5/13/2009'
p1270
(lp1271
S'CNB Financial Corp'
p1272
aS'United Financial Bancorp Inc'
p1273
asS'2/10/1998'
p1274
(lp1275
S'Rancho Vista Natl Bk,Vista,CA'
p1276
ag394
asS'9/19/1991'
p1277
(lp1278
S'Shawmut National Corp'
p1279
ag754
asS'1/27/1995'
p1280
(lp1281
S'Southwest Bancshares Inc'
p1282
ag984
asS'1/27/1997'
p1283
(lp1284
S'CB Financial Corp,Jackson,MI'
p1285
aS'Citizens Banking Corp,Flint,MI'
p1286
asS'9/19/1995'
p1287
(lp1288
S'State Savings Bancorp'
p1289
aS'Chemical Financial Corp'
p1290
asS'9/19/1994'
p1291
(lp1292
S'Commercial Bank,Middlesboro,KY'
p1293
aS'Pikeville Natl,Pikeville,KY'
p1294
asS'1/27/1992'
p1295
(lp1296
S'United Bancshares Inc,1 Other'
p1297
aS'FirsTier Financial Inc'
p1298
asS'1/27/1993'
p1299
(lp1300
S'First City Bank-Branch'
p1301
aS'First Natl Bk of Lubbock,Texas'
p1302
asS'9/21/2000'
p1303
(lp1304
S'Tehama County Bank,Red Bluff'
p1305
aS'Humboldt Bancorp,Eureka,CA'
p1306
asS'9/21/2005'
p1307
(lp1308
S'Union Bnk of CA NA,CA-Intl'
p1309
aS'Wachovia Corp,Charlotte,NC'
p1310
asS'5/5/2006'
p1311
(lp1312
S'Nuestra Tarjeta Servicios Inc'
p1313
aS'NBOG Bancorporation'
p1314
asS'11/25/1998'
p1315
(lp1316
S'Maple Leaf Financial Inc,Ohio'
p1317
aS'GLB Bancorp Inc,Mentor,OH'
p1318
asS'9/23/2002'
p1319
(lp1320
S'Acadiana Bancshares,Louisiana'
p1321
ag609
asS'12/24/1990'
p1322
(lp1323
S'Founders National Bank,Brea,CA'
p1324
aS'Landmark Bancorp'
p1325
asS'2/20/1998'
p1326
(lp1327
S'PNC Bank Corp-Branches(16),'
p1328
aS'First Western Bancorp Inc,PA'
p1329
asS'6/3/1997'
p1330
(lp1331
S'Citizens State Bank,CA'
p1332
aS'Santa Barbara Bancorp,CA'
p1333
asS'9/6/2001'
p1334
(lp1335
S'Farmers National Bancshares'
p1336
ag96
asS'9/6/2000'
p1337
(lp1338
S'Merchants New York Bancorp'
p1339
ag371
asS'2/17/2006'
p1340
(lp1341
S'Mansfield Bancorp Inc,IL'
p1342
aS'First Mid-Illinois Bancshares'
p1343
asS'9/6/2005'
p1344
(lp1345
S'Riverside Bancshares Inc,GA'
p1346
aS'Synovus Financial Corp'
p1347
asS'2/17/2004'
p1348
(lp1349
S'Renasant Bancshares Inc,TN'
p1350
aS'Peoples Holding Co Inc,MI'
p1351
asS'2/17/2009'
p1352
(lp1353
S'Bank of Auburn Hills,MI'
p1354
aS'Capitol Bancorp Ltd'
p1355
asS'1/7/1992'
p1356
(lp1357
S'Interstate Bancshares Inc,TX'
p1358
ag147
asS'7/7/2000'
p1359
(lp1360
S'Brenton Banks,Des Moines,IA'
p1361
aS'Wells Fargo & Co'
p1362
asS'4/16/2013'
p1363
(lp1364
S'Foster Bank Shares Inc'
p1365
aS'BBCN Bancorp Inc'
p1366
asS'7/7/2004'
p1367
(lp1368
S'Mystic Financial Inc,MA'
p1369
aS'Brookline Bancorp Inc'
p1370
asS'1/7/1994'
p1371
(lp1372
S'First Bank Washington of Omak'
p1373
aS'Central Bancorp,Wenatchee,WA'
p1374
asS'1/7/1998'
p1375
(lp1376
S'Miners Bank of Lykens'
p1377
aS'Mid Penn Bancorp Inc,PA'
p1378
asS'12/22/2003'
p1379
(lp1380
S'Pacific Union Bank,LA,CA'
p1381
aS'Hanmi Financial Corp'
p1382
asS'11/25/1997'
p1383
(lp1384
S'Towne Bancorp Inc,OH'
p1385
ag1109
asS'5/12/2003'
p1386
(lp1387
S'Keweah National Bank,CA'
p1388
aS'CVB Financial Corp,Ontario,CA'
p1389
asS'9/24/2004'
p1390
(lp1391
S'First Clermont Bank,Milford,OH'
p1392
ag276
asS'3/31/1999'
p1393
(lp1394
S'Ready Bank of West Florida'
p1395
ag1347
asS'3/31/1998'
p1396
(lp1397
S'Dime Financial Corp'
p1398
aS'Hudson United Bancorp,NJ'
p1399
asS'3/31/1995'
p1400
(lp1401
S'Templeton National'
p1402
aS'Bank of Santa Maria,CA'
p1403
asS'9/16/1991'
p1404
(lp1405
S'First National Pennsylvania'
p1406
ag778
asS'9/24/2008'
p1407
(lp1408
S'Gateway Financial Holdings Inc'
p1409
aS'Hampton Roads Bankshares Inc'
p1410
asS'9/16/1997'
p1411
(lp1412
S'Metropolitan State Bank,NJ'
p1413
ag712
asS'2/6/2006'
p1414
(lp1415
S'SterlingSouth Bank & Trust Co'
p1416
aS'BNC Bancorp,High Point,NC'
p1417
asS'2/6/2004'
p1418
(lp1419
S'Rocky Mountain Bancorp,MO'
p1420
ag1250
asS'11/30/2015'
p1421
(lp1422
S'HF Financial Corp'
p1423
aS'Great Western Bancorp Inc'
p1424
asS'4/20/2015'
p1425
(lp1426
S'SBk FSB-Palm Beach Gardens,FL'
p1427
aS'CenterState Banks,Davenport,FL'
p1428
asS'4/20/2011'
p1429
(lp1430
S'Bancorp Rhode Island Inc'
p1431
ag1370
asS'10/1/1993'
p1432
(lp1433
S'KeyCorp,Albany,NY(Key Corp,OH)'
p1434
aS'Society Corp'
p1435
asS'1/29/1998'
p1436
(lp1437
S'Southern Ohio Community'
p1438
aS'United Bancorp Inc,OH'
p1439
asS'1/29/1999'
p1440
(lp1441
S'First Central Bank,LA,CA'
p1442
aS'East West Bancorp Inc'
p1443
asS'11/18/1987'
p1444
(lp1445
S'Bank of Elizabethtown Inc'
p1446
ag159
asS'1/29/1992'
p1447
(lp1448
S'Columbia Bank,Wenatchee,WA'
p1449
ag621
asS'1/29/1993'
p1450
(lp1451
S'National Community Banks Inc'
p1452
ag792
asS'11/23/1992'
p1453
(lp1454
S'Stephenville Bank and Trust'
p1455
aS'First Abilene Bankshares Inc'
p1456
asS'11/23/1994'
p1457
(lp1458
S'Jupiter Tequesta National Bank'
p1459
ag1016
asS'1/29/1997'
p1460
(lp1461
S'Lowcountry Savings Bank,SC'
p1462
aS'Carolina First Corp,SC'
p1463
asS'11/21/2013'
p1464
(lp1465
S'BOH Holdings Inc'
p1466
aS'Independent Bank Group Inc'
p1467
asS'11/21/2014'
p1468
(lp1469
S'Central Bancshares Inc'
p1470
aS'MidWestOne Financial Group Inc'
p1471
asS'7/18/2008'
p1472
(lp1473
S'Columbia Financial Corp'
p1474
aS'CCFNB Bancorp Inc'
p1475
asS'7/18/2007'
p1476
(lp1477
S'Citrus & Chemical'
p1478
ag80
asS'7/18/2006'
p1479
(lp1480
S'Westbank Corp,MA'
p1481
aS'NewAlliance Bancshares Inc,CT'
p1482
asS'1/19/2005'
p1483
(lp1484
S'SouthBank,Woodstock, Georgia'
p1485
aS'Security Bank Corp,Macon.GA'
p1486
asS'3/17/1987'
p1487
(lp1488
S'United Nat Bk,Callicoon,NY'
p1489
ag489
asS'2/14/2013'
p1490
(lp1491
S'Community National Bancorp,IO'
p1492
aS'QCR Holdings Inc'
p1493
asS'10/4/2006'
p1494
(lp1495
S'Front Range Capital Corp'
p1496
aS'First State Bancorp,NM'
p1497
asS'8/27/1999'
p1498
(lp1499
S'Lanier Bancshares Inc'
p1500
ag815
asS'10/4/2004'
p1501
(lp1502
S'FNBG Bancshares Inc,Duluth,GA'
p1503
aS'GB&T Bancshares Inc,Georgia'
p1504
asS'10/19/2005'
p1505
(lp1506
S'Community First Finl Corp,VA'
p1507
ag1217
asS'11/8/1999'
p1508
(lp1509
S'Carolina First Bancshares,NC'
p1510
aS'First Charter Corp,Charlotte'
p1511
asS'7/27/1992'
p1512
(lp1513
S'First Northbrook Bancorp Inc'
p1514
aS'Premier Financial Services'
p1515
asS'7/27/1993'
p1516
(lp1517
S'First United Bank Group Inc'
p1518
ag1165
asS'7/27/1990'
p1519
(lp1520
g1180
aS'Merchants National Corp'
p1521
asS'1/18/1995'
p1522
(lp1523
g91
aS'Western Bank,Coos Bay,Oregon'
p1524
asS'5/29/2012'
p1525
(lp1526
S'BancTrust Financial Group Inc'
p1527
aS'Trustmark Corp,Jackson,MS'
p1528
asS'11/29/1988'
p1529
(lp1530
S'Portage National Bank,PA'
p1531
aS'BT Financial Corp,Johnstown,PA'
p1532
asS'7/27/1995'
p1533
(lp1534
S'American Bancorporation South'
p1535
ag1016
asS'7/27/1998'
p1536
(lp1537
S"First Nat'l Corp,West Point,MS"
p1538
aS'NBC Capital Corp'
p1539
asS'7/27/1999'
p1540
(lp1541
S'KSB Bancorp Inc,Kingfield,ME'
p1542
aS'Camden National Corp,Camden,ME'
p1543
asS'1/18/1999'
p1544
(lp1545
S'Bellingham Bancorp'
p1546
aS'Horizon Financial Corp,WA'
p1547
asS'10/11/2011'
p1548
(lp1549
S'Freestar Bank,Pontiac,Illinois'
p1550
aS'First Financial Corp'
p1551
asS'10/11/2012'
p1552
(lp1553
S'Heritage Bank,Phoenix,Arizona'
p1554
ag1250
asS'1/25/1995'
p1555
(lp1556
S'Bank of St John,La Place,LA'
p1557
ag335
asS'2/20/1992'
p1558
(lp1559
S'Union of Arkansas, Little Rock'
p1560
ag496
asS'1/25/1993'
p1561
(lp1562
S'First National Bankshares Inc'
p1563
ag1004
asS'1/25/1999'
p1564
(lp1565
S'Skaneateles Bancorp Inc'
p1566
aS'BSB Bancorp Inc,Binghamton,NY'
p1567
asS'10/2/1992'
p1568
(lp1569
S'Peoples Holding Co Inc,MI'
p1570
ag147
asS'11/8/2001'
p1571
(lp1572
S'MidAmerica Bancorp,Louisville'
p1573
ag481
asS'6/10/2013'
p1574
(lp1575
S'StellarOne Corp'
p1576
aS'Union First Market Bankshares'
p1577
asS'7/25/2007'
p1578
(lp1579
S'Bank of Salem'
p1580
aS'Frontier Finl Corp,Everett,WA'
p1581
asS'7/25/2006'
p1582
(lp1583
S'BOTH Inc'
p1584
aS'Sterling Bancshares Inc'
p1585
asS'7/25/2005'
p1586
(lp1587
S'Palm Beach County Bank,FL'
p1588
ag1177
asS'7/25/2004'
p1589
(lp1590
S'Snake River Bancorp Inc,ID'
p1591
aS'Intermountain Cmnty Bancorp'
p1592
asS'5/16/2011'
p1593
(lp1594
S'Global Trust Bank'
p1595
aS'Bay Coml Bk,Walnut Creek,CA'
p1596
asS'3/29/1985'
p1597
(lp1598
S'NS&T Bankshares,Washington,DC'
p1599
aS'United Virginia Bankshares Inc'
p1600
asS'4/8/1988'
p1601
(lp1602
S'Central Bancorporation'
p1603
ag119
asS'7/3/2006'
p1604
(lp1605
S'Summit Bancshares Inc'
p1606
ag736
asS'5/27/1986'
p1607
(lp1608
S'New Jersey Natl Corp(CoreStat)'
p1609
ag576
asS'7/1/1985'
p1610
(lp1611
S'Hanover Bank of Pennsylvania'
p1612
aS'First Valley Corp'
p1613
asS'7/1/1986'
p1614
(lp1615
S'Home Bank & Trust, Meriden, CT'
p1616
aS'Shawmut Corp,Boston,MA'
p1617
asS'7/1/1987'
p1618
(lp1619
S'Lebanon Bank,Tennessee'
p1620
ag107
asS'10/14/2014'
p1621
(lp1622
S'Delavan Bancshares Inc'
p1623
ag858
asS'5/30/1995'
p1624
(lp1625
S'MNB Bancshares Inc,KS'
p1626
aS'First Interstate Bancorp,CA'
p1627
asS'5/30/1996'
p1628
(lp1629
S'Farmers State Bancorp,Indiana'
p1630
ag304
asS'11/19/2014'
p1631
(lp1632
S'Capital Pacific Bancorp'
p1633
ag1213
asS'11/19/2013'
p1634
(lp1635
S'Gassaway Bancshares Inc'
p1636
ag470
asS'11/17/1993'
p1637
(lp1638
S'Western Industrial National'
p1639
ag1389
asS'11/17/1997'
p1640
(lp1641
S'Century Finl Corp,Rochester,PA'
p1642
ag704
asS'11/17/1995'
p1643
(lp1644
S'Republic Bancorporation Inc'
p1645
aS'ExecuFirst Bancorp Inc'
p1646
asS'11/17/1994'
p1647
(lp1648
S'United Financial Bancorp Inc'
p1649
ag970
asS'11/17/1999'
p1650
(lp1651
S'Hardwick Holding Co'
p1652
ag481
asS'2/15/1989'
p1653
(lp1654
S'C S Bancshares Inc'
p1655
aS'Fifth Third Bancorp,OH'
p1656
asS'7/23/2015'
p1657
(lp1658
S'Grand Bank,Dallas,TX'
p1659
ag1467
asS'1/12/1994'
p1660
(lp1661
S'Equitable-8 OH Branches'
p1662
ag1656
asS'12/4/1992'
p1663
(lp1664
S'Ohio Bancorp'
p1665
ag778
asS'9/8/1994'
p1666
(lp1667
S'Standard Bancorp Inc'
p1668
ag405
asS'9/8/1995'
p1669
(lp1670
S'Farmers & Merchants Bank,PA'
p1671
ag485
asS'9/8/1992'
p1672
(lp1673
S'First State Bk,Fayette Cnty,TN'
p1674
ag292
asS'12/4/1995'
p1675
(lp1676
S'West One Bancorp-WA,OR,ID'
p1677
aS'First Hawaiian Inc,Honolulu,HI'
p1678
asS'1/12/1993'
p1679
(lp1680
S'Villa Rica Bancorp Inc'
p1681
aS'First National Bancorp,Georgia'
p1682
asS'3/15/1988'
p1683
(lp1684
S'Unibancorp Inc,Chicago,IL'
p1685
ag914
asS'10/23/1992'
p1686
(lp1687
S'Flagler Bank Corp'
p1688
ag72
asS'12/4/1998'
p1689
(lp1690
S'High Point Financial Corp'
p1691
ag712
asS'1/12/1998'
p1692
(lp1693
S'CBT Corp,Paducah,Kentucky'
p1694
ag984
asS'1/12/1999'
p1695
(lp1696
S'Merchants Shenandoah Bancorp'
p1697
aS'First Leesport Bancorp Inc'
p1698
asS'9/8/1998'
p1699
(lp1700
S'First Chicago NBD-Branches(51)'
p1701
ag292
asS'9/8/1999'
p1702
(lp1703
S'Kings River Bancorp'
p1704
aS'VIB Corp,El Centro,California'
p1705
asS'6/26/2003'
p1706
(lp1707
S'Sarasota Bancorp Inc,FL'
p1708
ag80
asS'3/11/2004'
p1709
(lp1710
S'First Shares Bancorp Inc,IN'
p1711
aS'Lincoln Bancorp,IN'
p1712
asS'6/26/2001'
p1713
(lp1714
S'SJNB Financial Corp,CA'
p1715
aS'Greater Bay Bancorp,Palo Alto'
p1716
asS'6/26/2000'
p1717
(lp1718
S'Hudson River Bancorp Inc,NY'
p1719
aS'TrustCo Bank Corp,NY'
p1720
asS'2/16/1988'
p1721
(lp1722
S'Union Bank(Standard Chartered)'
p1723
aS'California First Bank,CA'
p1724
asS'4/23/1998'
p1725
(lp1726
S'Pacific Commerce Bank,CA'
p1727
aS'Scripps Bank,La Jolla,CA'
p1728
asS'4/23/1996'
p1729
(lp1730
S'Third Financial Corp,Piqua,OH'
p1731
aS'Security Banc Corp,OH'
p1732
asS'4/23/1993'
p1733
(lp1734
S'First Bentonville Bancshares'
p1735
ag496
asS'4/23/1992'
p1736
(lp1737
S'Central Financial Corp'
p1738
aS'Susquehanna Bancshares Inc'
p1739
asS'5/1/1986'
p1740
(lp1741
S'Horizon Bancorp,Morristown,NJ'
p1742
aS'Chemical Banking Corp'
p1743
asS'9/10/1997'
p1744
(lp1745
S'First Central Bank,Florida'
p1746
ag80
asS'5/19/1997'
p1747
(lp1748
S'Beckley Bancorp Inc,Beckley,WV'
p1749
ag1232
asS'5/19/1993'
p1750
(lp1751
S'First Natl Finl,Albuquerque,NM'
p1752
aS'First Security Corp,Utah'
p1753
asS'10/26/2005'
p1754
(lp1755
S'HFS Bank,FSB,Hobart,Indiana'
p1756
aS'MainSource Finl Grp Inc'
p1757
asS'10/31/1997'
p1758
(lp1759
S'Ohio River Bank,Ironton,OH'
p1760
ag470
asS'10/31/1995'
p1761
(lp1762
S'NBD Bank,Columbus,Ohio'
p1763
ag1656
asS'5/19/1999'
p1764
(lp1765
S'Western Bancorp,California'
p1766
ag60
asS'10/26/2000'
p1767
(lp1768
S'Capital Holdings Inc'
p1769
ag1656
asS'9/7/1995'
p1770
(lp1771
S'Bunkie Bancshares Inc'
p1772
ag335
asS'9/10/1999'
p1773
(lp1774
g661
ag175
asS'8/8/2006'
p1775
(lp1776
S'Wells River Bancorp Inc'
p1777
ag280
asS'6/21/2004'
p1778
(lp1779
S'SouthTrust Corp,Birmingham,AL'
p1780
ag1310
asS'6/21/2005'
p1781
(lp1782
S'Falls Bank,Stow,Ohio'
p1783
ag280
asS'6/21/2002'
p1784
(lp1785
S'CNB Holdings Inc,Pulaski,VA'
p1786
ag522
asS'8/8/2000'
p1787
(lp1788
S'SWVA Bancshares Inc'
p1789
aS'FNB Corp,Christianburg,VA'
p1790
asS'11/17/2004'
p1791
(lp1792
S'First Northwest Bancorp Inc,Il'
p1793
ag639
asS'10/27/2004'
p1794
(lp1795
S'Pointe Financial Corp,FL'
p1796
aS'The South Financial Group Inc'
p1797
asS'10/27/2005'
p1798
(lp1799
S'Stone City Bancshares Inc,'
p1800
ag1079
asS'5/24/2006'
p1801
(lp1802
S'PB Financial Services Corp'
p1803
ag96
asS'10/27/2003'
p1804
(lp1805
S'Reunion Bancshares Inc,TX'
p1806
aS'Southwest Bancorp of Texas,TX'
p1807
asS'7/17/1986'
p1808
(lp1809
S'Premier Banks,Libertyville,IL'
p1810
ag409
asS'8/15/1988'
p1811
(lp1812
S'First Bank of Marion County,TN'
p1813
aS'Sovran Financial,Norfolk,VA'
p1814
asS'10/6/2010'
p1815
(lp1816
S'Monroe Bancorp,Bloomington,IN'
p1817
ag175
asS'10/30/1991'
p1818
(lp1819
S'Merchants National Corp'
p1820
ag1201
asS'10/30/1990'
p1821
(lp1822
S'Liberty Natl Bank,Liberty MO'
p1823
ag296
asS'10/30/1992'
p1824
(lp1825
S'First Lehigh Corp'
p1826
ag214
asS'12/17/2003'
p1827
(lp1828
S'Peoples Finl Corp,IN'
p1829
ag1757
asS'10/30/1997'
p1830
(lp1831
S'Centennial Holdings,Olympia,WA'
p1832
ag1054
asS'12/17/2008'
p1833
(lp1834
S'Canton Bancorp Inc,PA'
p1835
aS'Chemung Financial,Elmira,NY'
p1836
asS'2/5/2007'
p1837
(lp1838
S'Gwinnett Commercial Group Inc'
p1839
aS'United Community Banks Inc'
p1840
asS'4/16/2015'
p1841
(lp1842
S'Fairmount Bancorp Inc'
p1843
aS'Hamilton Bancorp Inc'
p1844
asS'6/30/1999'
p1845
(lp1846
S'Eagle Bancgroup,Bloomington,IL'
p1847
ag808
asS'6/30/1998'
p1848
(lp1849
S'MarTex Bancshares,Pittsburg,TX'
p1850
ag335
asS'6/30/1997'
p1851
(lp1852
S'Carolina State Bank,Shelby,NC'
p1853
ag1511
asS'6/30/1995'
p1854
(lp1855
S'First Colonial Bank FSB,VA'
p1856
aS'James River Bankshares Inc,VA'
p1857
asS'6/30/1994'
p1858
(lp1859
S'First Citizens Bancorp of IN'
p1860
aS'KeyCorp,Cleveland,Ohio'
p1861
asS'6/30/1993'
p1862
(lp1863
S'First Acadiana National Bncshr'
p1864
ag52
asS'5/12/2005'
p1865
(lp1866
S'Keystone Finl,Kalamazoo,MI'
p1867
aS'Firstbank Corp,Alma,Michigan'
p1868
asS'10/1/1992'
p1869
(lp1870
S'Valley Commun Bk,Kingston,PA'
p1871
ag966
asS'9/17/1985'
p1872
(lp1873
S'Citizens and Southern Corp,SC'
p1874
aS'Citizens and Southern GA Corp'
p1875
asS'9/17/1986'
p1876
(lp1877
S'OmniBank Corp,Wyandotte,MI'
p1878
ag466
asS'10/1/1996'
p1879
(lp1880
S'Austin State Bank,Austin,IN'
p1881
aS'SY Bancorp,Louisville,KY'
p1882
asS'10/19/2006'
p1883
(lp1884
S'Far West Bancorp,Provo Utah'
p1885
aS'AmericanWest Bancorp,Spokane'
p1886
asS'10/1/1998'
p1887
(lp1888
S'Windsor Bancshares Inc,MN'
p1889
aS'Associated Banc-Corp'
p1890
asS'10/24/2000'
p1891
(lp1892
S'First Capital Bank,Phoenix,AZ'
p1893
aS'Colorado Business Bankshares'
p1894
asS'8/25/2008'
p1895
(lp1896
S'Guaranty Financial Services'
p1897
aS'First Sentry Bancshares Inc'
p1898
asS'8/25/2004'
p1899
(lp1900
S'Redwood Empire Bancorp,CA'
p1901
aS'Westamerica Bancorp'
p1902
asS'8/25/2005'
p1903
(lp1904
S'Advantage Bank,Branchburg,NJ'
p1905
aS'Sun Bancorp Inc,Vineland,NJ'
p1906
asS'10/24/2008'
p1907
(lp1908
S'Natl City Corp,Cleveland,Ohio'
p1909
ag447
asS'8/25/2000'
p1910
(lp1911
S'Community Bankshares,Bowie,MD'
p1912
ag1004
asS'8/25/2003'
p1913
(lp1914
S'Resource Bankshares Corp,VA'
p1915
ag214
asS'9/27/1994'
p1916
(lp1917
S'Woodford Bancorp,Versailles,KY'
p1918
ag1294
asS'9/27/1996'
p1919
(lp1920
S'Gulf South Bancshares Inc,LA'
p1921
ag4
asS'9/26/2014'
p1922
(lp1923
S'Herget Financial Corp'
p1924
ag808
asS'9/26/2012'
p1925
(lp1926
S'West Coast Bancorp'
p1927
aS'Columbia Banking System Inc'
p1928
asS'2/7/1986'
p1929
(lp1930
S'Thunderbird Capital,Phoenix,AZ'
p1931
ag1205
asS'5/2/2002'
p1932
(lp1933
S'Paradigm Bancorp Inc,Houston'
p1934
ag36
asS'5/2/2005'
p1935
(lp1936
S'Gateway Hldg Co Inc,Dallas,TX'
p1937
ag974
asS'12/15/1995'
p1938
(lp1939
S'Crawford Bancorp'
p1940
ag1551
asS'12/15/1993'
p1941
(lp1942
S'Sterling Bank & Trust Co FSB'
p1943
aS'Provident Bankshares Corp,MD'
p1944
asS'6/8/2010'
p1945
(lp1946
S'LaFollette First National Corp'
p1947
aS'Community Trust Bancorp,KY'
p1948
asS'7/5/1992'
p1949
(lp1950
S'FedFirst Bancshares Inc'
p1951
ag1135
asS'7/5/1990'
p1952
(lp1953
S'Bank of Hundred'
p1954
aS'CB&T Financial,Fairmont,WV'
p1955
asS'8/6/2002'
p1956
(lp1957
S'Valencia Bank & Trust'
p1958
ag646
asS'7/5/1995'
p1959
(lp1960
S'Western Reserve Bank of Ohio'
p1961
ag704
asS'12/15/1999'
p1962
(lp1963
S'First Banking Co of Southeast'
p1964
ag481
asS'12/17/1998'
p1965
(lp1966
S'Wood Bancorp,Bowling Green,OH'
p1967
ag280
asS'4/12/2006'
p1968
(lp1969
S'Citizen National Bancshares,KY'
p1970
aS'Farmers Capital Bank Corp'
p1971
asS'4/12/2007'
p1972
(lp1973
S'Randolph Bank & Trust Co'
p1974
aS'Bank of the Carolinas Corp'
p1975
asS'12/30/2014'
p1976
(lp1977
S'State Investors Bancorp Inc'
p1978
aS'First NBC Bank Holding Co'
p1979
asS'8/13/1986'
p1980
(lp1981
S'Conifer/Essex Group Inc'
p1982
ag324
asS'9/19/1985'
p1983
(lp1984
S'Fayette Bk & Tr, Uniontown, PA'
p1985
ag1532
asS'5/5/2010'
p1986
(lp1987
S'NexTier Inc'
p1988
aS'Northwest Bancshares Inc'
p1989
asS'5/5/2014'
p1990
(lp1991
S'Continental Bank Holdings Inc'
p1992
aS'Bryn Mawr Bank Corp'
p1993
asS'7/30/1992'
p1994
(lp1995
S'Prime Bancshares,Decatur,GA'
p1996
ag425
asS'3/26/1987'
p1997
(lp1998
S'United Vermont Bancorp,Rutland'
p1999
aS'Merchants Bancshares Inc,VT'
p2000
asS'5/20/1991'
p2001
(lp2002
S'AmeriTrust Corp,Cleveland,OH'
p2003
ag1201
asS'8/28/1986'
p2004
(lp2005
S'Cobanco Inc,Santa Cruz'
p2006
aS'Pacific Western Bancshares,CA'
p2007
asS'8/28/1989'
p2008
(lp2009
S'Meigs County Bancshares Inc'
p2010
aS'BMR Financial Group'
p2011
asS'6/6/1986'
p2012
(lp2013
S'First National Bk Pike Cty, PA'
p2014
aS'Meridian Bancorp Inc'
p2015
asS'2/6/1996'
p2016
(lp2017
S'Lafayette American Bancorp Inc'
p2018
ag1399
asS'8/5/2014'
p2019
(lp2020
S'Peoples Federal Bancshares Inc'
p2021
ag24
asS'8/5/2015'
p2022
(lp2023
S'Regal Bancorp Inc'
p2024
aS'Old Line Bancshares Inc'
p2025
asS'7/9/1997'
p2026
(lp2027
S'Highland Fed Bk,CA-CA Branch'
p2028
aS'First Banks Inc,Clayton'
p2029
asS'7/9/1993'
p2030
(lp2031
S'City Bancorp Inc,MO'
p2032
ag68
asS'7/9/1992'
p2033
(lp2034
S'Cherry Hill National Bank,NJ'
p2035
ag2015
asS'2/29/1988'
p2036
(lp2037
S'Hibernia Bank'
p2038
ag308
asS'7/9/1999'
p2039
(lp2040
S'Peoples Bank Corp,Indiana'
p2041
ag1656
asS'7/9/1998'
p2042
(lp2043
S'Frederica Bank & Trust,GA'
p2044
ag658
asS'7/7/2015'
p2045
(lp2046
S'Reunion Bank Of Florida'
p2047
aS'National Commerce Corp'
p2048
asS'1/24/1997'
p2049
(lp2050
S'Mercantile Bank,Sacramento,CA'
p2051
aS'SierraWest Bancorp,Truckee,CA'
p2052
asS'2/11/1998'
p2053
(lp2054
S'Bryan Bancorp of Georgia Inc'
p2055
aS'Savannah Bancorp,Savannah,GA'
p2056
asS'2/11/1993'
p2057
(lp2058
S'First Bath Corp'
p2059
ag2015
asS'11/25/2013'
p2060
(lp2061
S'First Wyoming Financial Corp'
p2062
aS'WSFS Financial Corp'
p2063
asS'3/31/1989'
p2064
(lp2065
S'New Holland Farmers Bank'
p2066
ag68
asS'1/22/2004'
p2067
(lp2068
S'Local Financial Corp,OK'
p2069
ag272
asS'3/31/1987'
p2070
(lp2071
S'Commercial Security Bancorp,UT'
p2072
aS'KeyCorp,Albany,NY(Key Corp,OH)'
p2073
asS'2/6/2013'
p2074
(lp2075
S'Flagstar Bank-Coml Bkg Bus'
p2076
ag1097
asS'5/14/1987'
p2077
(lp2078
S'Allied Bancshares,Houston,TX'
p2079
aS'First Interstate Bancorp'
p2080
asS'11/30/2004'
p2081
(lp2082
S'Century National Bank,FL'
p2083
aS'Seacoast Bkg Corp of Florida'
p2084
asS'9/18/1989'
p2085
(lp2086
S'First Interstate Corp of WI'
p2087
ag1165
asS'11/9/1993'
p2088
(lp2089
S'State First Financial Corp'
p2090
ag613
asS'9/18/1987'
p2091
(lp2092
S'Profile Financial Corp'
p2093
aS'Cornerstone Financial Corp'
p2094
asS'12/18/1985'
p2095
(lp2096
S'Indiana Banks (2)'
p2097
aS'Citizens Fidelity, Louisville'
p2098
asS'10/5/1994'
p2099
(lp2100
S'University Bank & Trust Co,CA'
p2101
ag367
asS'3/7/2006'
p2102
(lp2103
S'Bristol Bank,Coral Gables,FL'
p2104
aS'Bancshares of Florida Inc,FL'
p2105
asS'3/7/2005'
p2106
(lp2107
S'Summit Financial Corp,SC'
p2108
aS'First Citizens BancShares Inc'
p2109
asS'3/7/2001'
p2110
(lp2111
S'Citrus Financial Services Inc'
p2112
aS'CIB Marine Bancshares Inc'
p2113
asS'7/10/1995'
p2114
(lp2115
S'Midlantic Corp'
p2116
aS'PNC Bank Corp,Pittsburgh,PA'
p2117
asS'7/10/1996'
p2118
(lp2119
S'First Finl Corp of America,MO'
p2120
ag984
asS'1/13/2014'
p2121
(lp2122
S'Teche Holding Co,New Iberia,LA'
p2123
ag609
asS'7/10/1990'
p2124
(lp2125
S'United Banks of Colorado'
p2126
ag1165
asS'7/10/1998'
p2127
(lp2128
S'Downstate Banking Co'
p2129
ag970
asS'11/21/2001'
p2130
(lp2131
S'Ridgeway Bancshares Inc'
p2132
aS'Community Bankshares Inc'
p2133
asS'8/2/1996'
p2134
(lp2135
S'Southeast National Bank,LA'
p2136
ag676
asS'8/2/1995'
p2137
(lp2138
S'Flemington Natl Bank & Trust'
p2139
aS'UJB Financial Corp'
p2140
asS'8/2/1994'
p2141
(lp2142
S'Levy Bancorp'
p2143
ag1627
asS'11/21/2005'
p2144
(lp2145
S'First Natl Bank of Newport,PA'
p2146
aS'Orrstown Financial Svcs Inc'
p2147
asS'8/2/1991'
p2148
(lp2149
S'Tygarts Valley Natl Bk,VA'
p2150
ag1955
asS'11/21/2006'
p2151
(lp2152
S'United Heritage Bank,NJ'
p2153
aS'Cathay Gen Bancorp,LA,CA'
p2154
asS'1/30/2013'
p2155
(lp2156
S'Virginia Commerce Bancorp Inc'
p2157
ag206
asS'1/30/2014'
p2158
(lp2159
S'Summit Bancorp Inc,Arkadelphia'
p2160
ag284
asS'6/2/1983'
p2161
(lp2162
S'Flagship Bk-Tallahassee (Sun)'
p2163
aS'First Florida Banks Inc'
p2164
asS'1/24/2013'
p2165
(lp2166
S'First National Bank,Shelby,NC'
p2167
ag284
asS'7/4/2002'
p2168
(lp2169
S'Bank of Canton of California'
p2170
aS'UCBH Holdings Inc'
p2171
asS'10/3/2008'
p2172
(lp2173
S'Wachovia Corp,Charlotte,NC'
p2174
ag1362
asS'10/3/2002'
p2175
(lp2176
S'Central Bank of Tampa,Tampa,FL'
p2177
ag1797
asS'10/3/2007'
p2178
(lp2179
S'Equitable Financial Group Inc'
p2180
ag1209
asS'4/25/2000'
p2181
(lp2182
S'Northern Bank of Commerce,OR'
p2183
aS'Cowlitz Bancorp'
p2184
asS'4/25/2003'
p2185
(lp2186
S'Asiana Bank,Sunnyvale,CA'
p2187
aS'Nara Bancorp Inc,LA,CA'
p2188
asS'4/25/2006'
p2189
(lp2190
S'Home Building Bancorp Inc,IN'
p2191
aS'First Bancorp of Indiana Inc'
p2192
asS'3/19/1993'
p2193
(lp2194
S'Royal Bank Group Inc'
p2195
ag1286
asS'2/21/1995'
p2196
(lp2197
g1279
aS'Fleet Financial Group Inc,MA'
p2198
asS'10/11/2006'
p2199
(lp2200
S'Potomac Bank of Virginia'
p2201
aS'Sandy Spring Bancorp Inc'
p2202
asS'2/21/1997'
p2203
(lp2204
S'NBC Financial Corp,Louisiana'
p2205
aS'Deposit Guaranty,Jackson,MS'
p2206
asS'10/11/2001'
p2207
(lp2208
S'Liberty Bank & Trust Co,Boston'
p2209
aS'GBC Bancorp,Los Angeles,CA'
p2210
asS'10/10/2001'
p2211
(lp2212
S'Carnegie Financial Corp,PA'
p2213
aS'Fidelity Bancorp,Pittsburgh,PA'
p2214
asS'10/10/2002'
p2215
(lp2216
S'Corpus Christi Bancshares,TX'
p2217
ag413
asS'11/15/1990'
p2218
(lp2219
S'Commercial Bk,Douglasville,GA'
p2220
aS'Bank South Corp,Atlanta,GA'
p2221
asS'11/15/1993'
p2222
(lp2223
S'Country Natl Bank,Redding,CA'
p2224
aS'TriCo Bancshares,Chico,CA'
p2225
asS'4/18/2007'
p2226
(lp2227
S'FNB Finl Corp,Three Rivers,MI'
p2228
aS'Southern Michigan Bancorp,MI'
p2229
asS'11/15/1995'
p2230
(lp2231
S'Delta Bank & Trust Co,LA'
p2232
ag4
asS'11/15/1994'
p2233
(lp2234
S'West Side Bancshares,TX'
p2235
ag758
asS'11/8/2015'
p2236
(lp2237
S'Grayson Bankshares Inc'
p2238
aS'Cardinal Bankshares Corp,VA'
p2239
asS'5/27/1998'
p2240
(lp2241
S'Southern Bancshares,Illinois'
p2242
ag175
asS'6/22/1995'
p2243
(lp2244
g2232
ag335
asS'3/24/1995'
p2245
(lp2246
g829
ag52
asS'3/24/1993'
p2247
(lp2248
S'New Dartmouth Bank,NH'
p2249
ag617
asS'5/27/1993'
p2250
(lp2251
g1752
ag826
asS'5/27/1994'
p2252
(lp2253
S'First Bancshares,Slidell,LA'
p2254
ag52
asS'3/24/1998'
p2255
(lp2256
S'Village Bankshares Inc,FL'
p2257
ag4
asS'7/1/1998'
p2258
(lp2259
S'Firstar Corp,Milwaukee, Wi'
p2260
ag1258
asS'12/21/1988'
p2261
(lp2262
S'Elk National Bk,Big Chimney,WV'
p2263
ag206
asS'7/1/1994'
p2264
(lp2265
S'Metropolitan Financial Corp'
p2266
ag119
asS'7/1/1992'
p2267
(lp2268
S'MidAmerican Corp'
p2269
ag984
asS'12/11/1992'
p2270
(lp2271
S'Sailors and Merchants Bank'
p2272
ag56
asS'12/11/1991'
p2273
(lp2274
S'National Bank of the West,CO'
p2275
ag296
asS'12/11/1996'
p2276
(lp2277
S'First Valley Bank,Lompoc,CA'
p2278
ag1333
asS'12/11/1997'
p2279
(lp2280
S'First State Corp,Albany,Ga'
p2281
ag4
asS'6/24/2010'
p2282
(lp2283
S'Christiana Bank & Trust Co'
p2284
ag2063
asS'6/24/2014'
p2285
(lp2286
S'Georgia-Carolina Bancshares'
p2287
aS'State Bank Financial Corp'
p2288
asS'3/16/1995'
p2289
(lp2290
S'Mt Vernon Financial Corp'
p2291
ag80
asS'3/16/1993'
p2292
(lp2293
S'Shelby County Bank,Shelbyville'
p2294
ag1656
asS'3/16/1990'
p2295
(lp2296
S'Wyoming National Bancorp'
p2297
ag1165
asS'10/13/1997'
p2298
(lp2299
S'First Community Bancshares,TN'
p2300
ag292
asS'10/13/1994'
p2301
(lp2302
S'Aiken County National Bank'
p2303
ag1463
asS'10/13/1992'
p2304
(lp2305
S'Union Bank & Tr,Morganfeld,KY'
p2306
ag970
asS'9/8/1981'
p2307
(lp2308
S'Florida National Bank'
p2309
ag572
asS'4/15/1988'
p2310
(lp2311
S'Monroe Bankshares,Tennessee'
p2312
ag32
asS'9/8/1987'
p2313
(lp2314
S'United Midwest Bancorp,Troy,MI'
p2315
ag881
asS'9/8/1986'
p2316
(lp2317
S'Boone Corp,Lebanon,IN'
p2318
aS'AmeriTrust Corp,Cleveland,OH'
p2319
asS'9/11/2014'
p2320
(lp2321
S'TCNB Financial Corp'
p2322
aS'First Citizens Banc Corp,OH'
p2323
asS'7/20/2015'
p2324
(lp2325
S'United International Bank'
p2326
aS'Preferred Bank,Los Angeles,CA'
p2327
asS'6/26/2015'
p2328
(lp2329
S'FNBPA Bancorp Inc'
p2330
aS'Juniata Valley Financial Corp'
p2331
asS'3/19/2004'
p2332
(lp2333
S'Madison Bancshares Inc,FL'
p2334
ag455
asS'4/23/1984'
p2335
(lp2336
S'Hawaiian Trust Co'
p2337
aS'Bancorp Hawaii Inc,Honolulu,HI'
p2338
asS'7/30/1996'
p2339
(lp2340
S'Park Bankshares,Lake Park,FL'
p2341
ag1016
asS'4/13/2001'
p2342
(lp2343
S'City Bancshares Inc,Mineral'
p2344
ag12
asS'7/6/2006'
p2345
(lp2346
S'New Asia Bancorp Inc,Chicago'
p2347
ag2154
asS'4/13/2005'
p2348
(lp2349
S'Peoples State Bk,Georgia'
p2350
ag1355
asS'5/21/1998'
p2351
(lp2352
S'Mid Am Inc,Bowling Green,Ohio'
p2353
ag704
asS'4/13/2006'
p2354
(lp2355
S'West Pointe Bancorp Inc'
p2356
aS'Commerce Bancshares Inc'
p2357
asS'4/8/1993'
p2358
(lp2359
g1927
ag1524
asS'1/21/2015'
p2360
(lp2361
S'Asia Bancshares Inc'
p2362
ag2154
asS'4/8/1994'
p2363
(lp2364
S'Unity Bancorp,New Waterford,OH'
p2365
ag704
asS'4/8/1996'
p2366
(lp2367
S'Sunrise Bancorp,Roseville,CA'
p2368
aS'ValliCorp Holdings Inc,CA'
p2369
asS'5/19/1987'
p2370
(lp2371
S'Peoples Ban Corp,Seattle'
p2372
aS'US Bancorp,Portland,Oregon'
p2373
asS'6/4/2009'
p2374
(lp2375
S'American Home Bank,Chicago,IL'
p2376
aS'Bancorp Inc'
p2377
asS'3/25/1994'
p2378
(lp2379
S'United National Bancorp'
p2380
ag379
asS'8/8/2012'
p2381
(lp2382
S'Savannah Bancorp,Savannah,GA'
p2383
aS'SCBT Finl Corp,Columbia,SC'
p2384
asS'3/25/1991'
p2385
(lp2386
S'Marine Corp,Springfield,IL'
p2387
ag202
asS'3/25/1992'
p2388
(lp2389
S'Peoples Bancorp Inc,Lebanon,PA'
p2390
ag2015
asS'5/19/1989'
p2391
(lp2392
S'Tower Properties Co'
p2393
ag2357
asS'8/12/1991'
p2394
(lp2395
S'Security Pacific,Los Angeles'
p2396
aS'BankAmerica Corp'
p2397
asS'10/27/2014'
p2398
(lp2399
S'Old Florida Bancshares Inc'
p2400
ag609
asS'8/12/1992'
p2401
(lp2402
S'South Central Illinois Bancorp'
p2403
aS'CNB Bancshares Inc,IN'
p2404
asS'8/12/1994'
p2405
(lp2406
S'Bank of Newport,Newport Beach'
p2407
ag312
asS'8/12/1996'
p2408
(lp2409
S'Missoula Bancshares,Montana'
p2410
ag139
asS'10/6/2000'
p2411
(lp2412
S'First Sec Bank,Sarasota,FL'
p2413
aS'United Financial Holdings Inc'
p2414
asS'4/11/2002'
p2415
(lp2416
S'Bancorp Connecticut Inc'
p2417
ag892
asS'10/6/2003'
p2418
(lp2419
S'First State Bank of North TX'
p2420
ag36
asS'8/15/1994'
p2421
(lp2422
S'Peach State Bank,Riverdale,GA'
p2423
ag1347
asS'10/6/2006'
p2424
(lp2425
S'Legacy Bank NA,Campbell,CA'
p2426
aS'United Security Bancshares,CA'
p2427
asS'8/15/1997'
p2428
(lp2429
S'Keystone Heritage Group'
p2430
ag214
asS'5/15/2007'
p2431
(lp2432
S'Stamford Bank Corp,Stamford,NY'
p2433
aS'Delaware Bancshares,Walton,NY'
p2434
asS'5/23/1995'
p2435
(lp2436
S'Mariners Bancorp'
p2437
ag959
asS'5/23/1997'
p2438
(lp2439
S'Great Lakes Natl Bk Ohio,Ohio'
p2440
ag1656
asS'5/23/1990'
p2441
(lp2442
S'Farmers & Merchant-Eastn Shore'
p2443
ag1147
asS'5/23/1991'
p2444
(lp2445
S'Valley Bank,Moreno Valley'
p2446
aS'California State Bank'
p2447
asS'4/16/2004'
p2448
(lp2449
S'Madison Bancshares Grp Ltd,PA'
p2450
aS'Leesport Financial Corp,PA'
p2451
asS'4/16/2002'
p2452
(lp2453
S'CenterState Bank of Florida'
p2454
aS'CenterState Banks of FL Inc,FL'
p2455
asS'4/16/2003'
p2456
(lp2457
S'CB Bancshares Inc,Honolulu,HI'
p2458
aS'CPB Inc,Honolulu,Hawaii'
p2459
asS'6/30/1986'
p2460
(lp2461
S'Citizens Fidelity, Louisville'
p2462
ag778
asS'6/30/1987'
p2463
(lp2464
S'Western Security Finl,Salem,OR'
p2465
ag2073
asS'6/30/1989'
p2466
(lp2467
S'Bank of Myrtle Point'
p2468
ag1524
asS'12/13/1993'
p2469
(lp2470
S'First Columbus Financial Corp'
p2471
ag2206
asS'7/26/1999'
p2472
(lp2473
S'Western Bancshares,NM'
p2474
ag504
asS'7/26/1994'
p2475
(lp2476
S'First Community Bk,Dawsonville'
p2477
ag815
asS'6/26/2007'
p2478
(lp2479
S'Business Finance Capital Corp'
p2480
ag436
asS'7/26/1991'
p2481
(lp2482
S'Hasten Bancorp'
p2483
ag914
asS'7/26/1993'
p2484
(lp2485
S'Alerion Corp'
p2486
ag288
asS'5/1/1998'
p2487
(lp2488
S'M&M Financial Corp,Marion,SC'
p2489
aS'Anchor Financial Corp'
p2490
asS'5/6/1994'
p2491
(lp2492
S'Glendale Bancorporation'
p2493
aS'Mellon Bank Corp,Pittsburgh,PA'
p2494
asS'6/12/1996'
p2495
(lp2496
S'First Sterling Bancorp,PA'
p2497
aS'Prime Bancorp,Philadelphia,PA'
p2498
asS'6/12/1995'
p2499
(lp2500
S'United Whitley Corp'
p2501
ag1294
asS'6/12/1998'
p2502
(lp2503
S'Hometown Bancshares Inc'
p2504
ag1585
asS'5/1/1997'
p2505
(lp2506
S'Cardinal Bancshares,Kentucky'
p2507
aS'Area Bancshares Corp,Kentucky'
p2508
asS'5/14/2008'
p2509
(lp2510
S'Indian Village Bancorp Inc,OH'
p2511
aS'CSB Bancorp Inc,Millersburg,OH'
p2512
asS'2/15/1999'
p2513
(lp2514
S'Grady Holding Co,Cairo,Georgia'
p2515
aS'Capital City Bank Group,FL'
p2516
asS'4/22/2005'
p2517
(lp2518
S'Washington Coml Bancorp,WA'
p2519
aS'Venture Financial Group,WA'
p2520
asS'2/15/1994'
p2521
(lp2522
S'Tampa Bay Banking Co'
p2523
aS'AmSouth Bancorp,Alabama'
p2524
asS'2/15/1995'
p2525
(lp2526
S'Urban National Bank'
p2527
ag1399
asS'12/15/1987'
p2528
(lp2529
S'Decatur Bancshares Inc'
p2530
ag1656
asS'12/15/1986'
p2531
(lp2532
S'Texas Commerce Bancshares,TX'
p2533
aS'Chemical New York Corp'
p2534
asS'2/26/1986'
p2535
(lp2536
S'Northwest Nat Bk,Rensselaer,IN'
p2537
ag202
asS'2/26/1985'
p2538
(lp2539
S'Commerce Bancorp Inc,MI'
p2540
aS'Security Bancorp,Southgate,MI'
p2541
asS'12/15/1988'
p2542
(lp2543
S'FBC Bancshares Inc,OH'
p2544
aS'Mid Am Inc,Bowling Green,Ohio'
p2545
asS'5/31/2013'
p2546
(lp2547
g1974
ag1417
asS'5/31/2012'
p2548
(lp2549
S'New England Bancshares Inc,CT'
p2550
ag1273
asS'5/18/2004'
p2551
(lp2552
S'Citizens Bancshares Inc,FL'
p2553
aS'ABC Bancorp,Moultrie,Georgia'
p2554
asS'8/13/1998'
p2555
(lp2556
S'Skylands Community Bank'
p2557
aS'Little Falls Bancorp Inc'
p2558
asS'8/13/1997'
p2559
(lp2560
S'West Coast Bank of Sarasota'
p2561
ag1023
asS'8/13/1992'
p2562
(lp2563
S'Fourth National Corp'
p2564
ag405
asS'8/13/1991'
p2565
(lp2566
S'Old National Bancshares Inc'
p2567
ag984
asS'11/20/2002'
p2568
(lp2569
S'First Community Bancshares,IN'
p2570
ag1757
asS'11/20/2003'
p2571
(lp2572
S'Allegiant Bancorp,St Louis,MO'
p2573
ag1201
asS'11/20/2000'
p2574
(lp2575
S'Old Kent Finl Corp,Michigan'
p2576
ag1656
asS'11/20/2001'
p2577
(lp2578
S'Vista Bancorp,Phillipsburg,NJ'
p2579
ag1035
asS'3/28/2000'
p2580
(lp2581
S'Mid-Coast Bancorp Inc,ME'
p2582
aS'Union Bankshares Co,Ellsworth,'
p2583
asS'7/8/2014'
p2584
(lp2585
S'Great Lakes Finl Resources Inc'
p2586
ag401
asS'1/11/1993'
p2587
(lp2588
S'Tracy Bankshares,Denver,CO'
p2589
aS'California Bancshares Inc'
p2590
asS'1/11/1995'
p2591
(lp2592
S'Montour Bank,Danville,PA'
p2593
ag740
asS'1/11/1994'
p2594
(lp2595
S'Bank of Loudoun'
p2596
aS'Jefferson Bankshares Inc,VA'
p2597
asS'1/11/1996'
p2598
(lp2599
S'Home Interstate Bancorp,CA'
p2600
aS'CU Bancorp,Encino,California'
p2601
asS'6/6/1999'
p2602
(lp2603
S'First Security Corp,Utah'
p2604
ag390
asS'8/28/1995'
p2605
(lp2606
S'Integra Financial Corp'
p2607
ag1201
asS'8/28/1997'
p2608
(lp2609
S'Republic National Bancorp,AZ'
p2610
ag766
asS'8/29/2013'
p2611
(lp2612
S'F&M Bancorporation Inc'
p2613
ag819
asS'9/5/1989'
p2614
(lp2615
S'CSB Inc'
p2616
aS'INB Financial Corp'
p2617
asS'8/28/1998'
p2618
(lp2619
S'Ready State Bank of Hialeah'
p2620
ag292
asS'6/6/1996'
p2621
(lp2622
S'Cupertino National Bancorp,CA'
p2623
ag1716
asS'11/22/2004'
p2624
(lp2625
S'First Natl Banks-West Co,WY'
p2626
ag139
asS'11/22/2005'
p2627
(lp2628
S'Neighbors Bancshares Inc,GA'
p2629
ag1486
asS'2/3/2003'
p2630
(lp2631
S'Abrams Centre Natl Bank,TX'
p2632
ag36
asS'12/12/2005'
p2633
(lp2634
S'Bank Calumet,Hammond,Indiana'
p2635
ag401
asS'4/25/1994'
p2636
(lp2637
S'Glendale Federal Bk-FL Branch'
p2638
ag996
asS'12/12/2000'
p2639
(lp2640
S'Bay Bancshares,Laporte,Texas'
p2641
ag425
asS'7/6/1994'
p2642
(lp2643
S'Wedge Bank,Alton,IL'
p2644
ag984
asS'12/12/2002'
p2645
(lp2646
S'First Colony Bancshares Inc,GA'
p2647
aS'Main Street Banks Inc,GA'
p2648
asS'12/12/2003'
p2649
(lp2650
S'GA Financial Inc,Pittsburgh,PA'
p2651
ag379
asS'9/26/2000'
p2652
(lp2653
S'First Bankshares of West Point'
p2654
ag2516
asS'9/26/2001'
p2655
(lp2656
S'Oregon Business Bank,Oswego,OR'
p2657
aS'Banner Corp'
p2658
asS'9/26/2002'
p2659
(lp2660
S'AllFirst Financial Inc'
p2661
aS'M&T Bank Corp,Buffalo,New York'
p2662
asS'9/26/2003'
p2663
(lp2664
S'Business Bancorp,California'
p2665
ag646
asS'9/26/2007'
p2666
(lp2667
S'Washington Banking Co'
p2668
ag1581
asS'5/15/1991'
p2669
(lp2670
g2003
ag1435
asS'5/15/1997'
p2671
(lp2672
S'Josephine Bancshares Inc,KY'
p2673
aS'Citizens National Corp'
p2674
asS'5/15/1996'
p2675
(lp2676
S'Old Natl Bank of Huntington,WV'
p2677
aS'City Holding Co,Charleston,WV'
p2678
asS'5/15/1998'
p2679
(lp2680
S'VB&T Banchshares,Valdosta,GA'
p2681
ag4
asS'7/16/2003'
p2682
(lp2683
S'GLB Bancorp Inc,Mentor,OH'
p2684
ag280
asS'3/31/1986'
p2685
(lp2686
S'CommerceAmerica Corp,Indiana'
p2687
ag532
asS'11/25/2003'
p2688
(lp2689
S'Foxborough Savings Bank,MA'
p2690
ag892
asS'11/3/2014'
p2691
(lp2692
S'Monarch Community Bancorp Inc'
p2693
ag1290
asS'11/25/2008'
p2694
(lp2695
S'Citizens Finl Grp Inc-IN Ret'
p2696
ag175
asS'4/27/2015'
p2697
(lp2698
S'Nuvo Bank & Trust Co'
p2699
ag2000
asS'4/27/2011'
p2700
(lp2701
S'Bank of Granite Corp'
p2702
aS'FNB United Corp'
p2703
asS'6/25/1998'
p2704
(lp2705
S'State Bank of South Orange'
p2706
ag1035
asS'5/14/1996'
p2707
(lp2708
S'United Mizrahi Bank & Trust'
p2709
aS'Commercial Bank of New York'
p2710
asS'9/18/1997'
p2711
(lp2712
S'Richmond Bancorp,Richmond,IL'
p2713
aS'State Finl Svcs Corp,WI'
p2714
asS'9/18/1992'
p2715
(lp2716
S'Meritor Savings FA'
p2717
ag56
asS'2/1/1994'
p2718
(lp2719
S'Citizens Express Co'
p2720
ag2221
asS'12/18/1991'
p2721
(lp2722
S'Evergreen Bancorp Inc'
p2723
ag139
asS'2/1/1993'
p2724
(lp2725
S'M&D Holding Co'
p2726
ag1165
asS'5/11/1994'
p2727
(lp2728
S'Marshall & Illsley-Middleton,'
p2729
ag1890
asS'12/18/1998'
p2730
(lp2731
S'Ramapo Financial Corp'
p2732
ag371
asS'1/13/2006'
p2733
(lp2734
S'Albemarle First Bk,VA'
p2735
aS'Premier Community Bankshares'
p2736
asS'8/11/2006'
p2737
(lp2738
S'Maplesville Bancorp,Clanton,AL'
p2739
aS'SouthCrest Finl Grp Inc'
p2740
asS'8/11/2003'
p2741
(lp2742
S'Troy Financial Corp,Troy,NY'
p2743
ag222
asS'6/11/2001'
p2744
(lp2745
S'MetroWest Bank'
p2746
ag892
asS'6/11/2003'
p2747
(lp2748
S'Hacienda Bank,Santa Maria,CA'
p2749
ag854
asS'5/10/1996'
p2750
(lp2751
S'City National Bk,Whitehouse,TX'
p2752
ag613
asS'6/2/1995'
p2753
(lp2754
S'National Commerce Corp'
p2755
ag96
asS'6/2/1994'
p2756
(lp2757
S'LBO Bancorp Inc'
p2758
ag2206
asS'6/2/1997'
p2759
(lp2760
S'PTC Bancorp,Brookville,Indiana'
p2761
aS'Indiana United Bancorp,IN'
p2762
asS'5/10/1999'
p2763
(lp2764
S'Valley National Corp,CA'
p2765
ag766
asS'6/2/1993'
p2766
(lp2767
S'Firestone Bank,Lisbon,Ohio'
p2768
ag704
asS'6/2/1992'
p2769
(lp2770
S'Financial Dominion of KY Corp'
p2771
ag159
asS'10/3/2014'
p2772
(lp2773
S'Florida Bank Group Inc'
p2774
ag609
asS'9/15/2004'
p2775
(lp2776
S'Prospect Bancshares Inc,OH'
p2777
ag280
asS'10/29/1992'
p2778
(lp2779
S'Hi-Bancorp Inc,GNP Bancorp Inc'
p2780
aS'First Colonial Bankshares,IL'
p2781
asS'10/29/1991'
p2782
(lp2783
S'Northeast WI Finl Services Inc'
p2784
ag1890
asS'10/29/1997'
p2785
(lp2786
S'Pittsburg Bancshares Inc,KS'
p2787
ag2357
asS'10/29/1996'
p2788
(lp2789
S'First-Knox Banc Corp'
p2790
ag276
asS'9/28/2004'
p2791
(lp2792
S'Union Bank of Florida,FL'
p2793
ag80
asS'11/4/1993'
p2794
(lp2795
S'First Bancorp of Louisiana'
p2796
ag335
asS'5/14/1986'
p2797
(lp2798
S'First Citizen Bank AL,Oneonta'
p2799
aS'First AL Bancshares,AL'
p2800
asS'3/8/1994'
p2801
(lp2802
S'Bank of South County,St Louis'
p2803
aS'Capital Bancorporation Inc'
p2804
asS'3/8/1990'
p2805
(lp2806
S'American Interstate Bank'
p2807
ag959
asS'3/8/1993'
p2808
(lp2809
S'Gulf & Southern Financial Corp'
p2810
ag425
asS'5/26/1993'
p2811
(lp2812
S'Mid States Bancshares Inc'
p2813
ag202
asS'12/21/1993'
p2814
(lp2815
S'Mid-Atlantic Bankcorp'
p2816
ag214
asS'12/21/1992'
p2817
(lp2818
S'Pilgrim State Bank'
p2819
ag1399
asS'12/21/1995'
p2820
(lp2821
S'Southern Banking Corp'
p2822
ag80
asS'5/26/1994'
p2823
(lp2824
S'Kilgore First Bancorp Inc'
p2825
ag613
asS'12/21/1999'
p2826
(lp2827
S'Natl Bancorp Of Alaska Inc'
p2828
ag1362
asS'5/26/1998'
p2829
(lp2830
S'Republic Bank'
p2831
ag2029
asS'11/7/2013'
p2832
(lp2833
S'Citizens State Bankshares'
p2834
aS'Southern Missouri Bancorp Inc'
p2835
asS'1/5/1998'
p2836
(lp2837
S'Sunbelt Natl Bk of Houston,TX'
p2838
aS'Prime Bancshares Inc,Texas'
p2839
asS'4/24/2007'
p2840
(lp2841
S'Desert Community Bk,California'
p2842
ag1443
asS'8/27/2015'
p2843
(lp2844
S'Mother Lode Bank,Sonora,CA'
p2845
aS'Oak Valley Bancorp'
p2846
asS'8/27/2014'
p2847
(lp2848
S'Phoenix Bancorp'
p2849
ag1378
asS'12/11/1987'
p2850
(lp2851
S'Natl Bk Commerce,Williamson,WV'
p2852
aS'Key Centurion Bancshares,WV'
p2853
asS'4/24/2000'
p2854
(lp2855
S'FSB Bancorp'
p2856
aS'IBT Bancorp Inc,Pennsylvania'
p2857
asS'8/2/1989'
p2858
(lp2859
S'Concord Commercial Bank'
p2860
aS'Mission Valley Bancorp'
p2861
asS'7/28/1995'
p2862
(lp2863
S'National American Bancorp Inc'
p2864
ag1008
asS'4/15/1994'
p2865
(lp2866
S'First Park Ridge Corp'
p2867
ag409
asS'10/13/1987'
p2868
(lp2869
S'Ultra Bancorp,Bridgewater,NJ'
p2870
aS'Summit Bancorporation'
p2871
asS'10/13/1986'
p2872
(lp2873
S'Roswell Bank, Georgia'
p2874
ag56
asS'4/15/1993'
p2875
(lp2876
S'First Western Bank NA,San Dieg'
p2877
aS'Peninsula Bank of San Diego,CA'
p2878
asS'5/7/2006'
p2879
(lp2880
S'Golden West Financial Corp,CA'
p2881
ag1310
asS'5/7/2001'
p2882
(lp2883
S'FVNB Corp,Victoria,Texas'
p2884
ag36
asS'5/7/2002'
p2885
(lp2886
S'Three Rivers Bancorp Inc,PA'
p2887
ag280
asS'5/7/2003'
p2888
(lp2889
S'Peoples Bankcorp Inc,NY'
p2890
ag443
asS'7/20/2001'
p2891
(lp2892
S'Union Financial Group Ltd'
p2893
ag2029
asS'7/20/2004'
p2894
(lp2895
S'Ripley National Bank,OH'
p2896
aS'Oak Hill Finl Inc,Jackson,OH'
p2897
asS'7/20/2007'
p2898
(lp2899
S'Oak Hill Finl Inc,Jackson,OH'
p2900
ag151
asS'9/11/2006'
p2901
(lp2902
S"Stockmen's Bancorp,Kingman,AZ"
p2903
ag390
asS'9/11/2003'
p2904
(lp2905
S'Round Lake Bankcorp Inc,IL'
p2906
aS'Nrthn States Finl Corp'
p2907
asS'3/20/1992'
p2908
(lp2909
S'Citizens First Bank'
p2910
ag536
asS'3/20/1990'
p2911
(lp2912
S'Santa Clarita National Bank'
p2913
ag308
asS'3/20/1997'
p2914
(lp2915
S'US Bancorp,Portland,Oregon'
p2916
ag60
asS'3/20/1996'
p2917
(lp2918
S'Todays Bancorp Inc'
p2919
ag984
asS'2/22/2002'
p2920
(lp2921
S'Texas Guaranty Natl Bk,Texas'
p2922
ag36
asS'6/6/2011'
p2923
(lp2924
S'Gateway Bancorp,Cerritos,'
p2925
ag167
asS'7/25/1985'
p2926
(lp2927
S'Southern Natl Bankshares, GA'
p2928
ag179
asS'3/24/1988'
p2929
(lp2930
S'Charter Bank Grp,Northfield,IL'
p2931
ag466
asS'3/29/1993'
p2932
(lp2933
S'Orange Banking Corp'
p2934
ag2524
asS'11/16/2015'
p2935
(lp2936
S'High Point Bank Corp'
p2937
ag1417
asS'9/5/2006'
p2938
(lp2939
S'Southern Bancorp Inc,GA'
p2940
ag1840
asS'7/13/1994'
p2941
(lp2942
S'NBA Holding Company'
p2943
ag40
asS'6/23/2006'
p2944
(lp2945
S'Farnsworth Bancorp Inc'
p2946
aS'Sterling Banks Inc'
p2947
asS'10/15/2012'
p2948
(lp2949
S'First Associations Bank,Dallas'
p2950
aS'Pacific Premier Bancorp Inc'
p2951
asS'12/10/2007'
p2952
(lp2953
S'LongLeaf Community Bank,NC'
p2954
aS'Four Oaks Fincorp Inc'
p2955
asS'4/2/2004'
p2956
(lp2957
g1719
ag222
asS'8/20/1992'
p2958
(lp2959
S'Lincoln Financial Corp,IN'
p2960
ag1165
asS'4/2/2009'
p2961
(lp2962
S'TriStone Cmnty Bk,NC'
p2963
ag459
asS'12/18/1989'
p2964
(lp2965
S'SBT Bancorp Inc,Mt Carmel,IL'
p2966
ag175
asS'7/30/1985'
p2967
(lp2968
S'Franklin Bancorp'
p2969
ag528
asS'10/18/2012'
p2970
(lp2971
S'Luzerne National Bank Corp'
p2972
aS'Penns Woods Bancorp Inc,PA'
p2973
asS'8/12/1985'
p2974
(lp2975
S'Merrill Bankshares Co'
p2976
ag264
asS'8/6/1985'
p2977
(lp2978
S'General Bancshares Corp'
p2979
ag758
asS'8/6/1987'
p2980
(lp2981
S'American SW Bancshares El Paso'
p2982
aS'Sunwest Finl Svcs,Albuquerque'
p2983
asS'1/26/2011'
p2984
(lp2985
S'Abington Bancorp,Jenkintown,PA'
p2986
ag1739
asS'7/10/1997'
p2987
(lp2988
S'Pacific State Bk,Reedsport,OR'
p2989
aS'Security Bank Holding,OR'
p2990
asS'4/13/1987'
p2991
(lp2992
S'County Bancorp,Lyndhurst,NJ'
p2993
aS'Midlantic Corp'
p2994
asS'10/14/1998'
p2995
(lp2996
S'Mayflower Co-Operative Bank'
p2997
aS'First Finan Corp,Providence,RI'
p2998
asS'9/14/1987'
p2999
(lp3000
S'First Coml Bancshares,LA'
p3001
ag52
asS'12/2/2007'
p3002
(lp3003
S'Fidelity & Trust Finl Corp,MD'
p3004
aS'Eagle Bancorp Inc,Bethesda,MD'
p3005
asS'12/2/2004'
p3006
(lp3007
S'Shrewsbury Bancorp,NJ'
p3008
ag371
asS'12/2/2002'
p3009
(lp3010
S'Kentucky Bancshares Inc,KY'
p3011
aS'Peoples Bancorp,Marietta,OH'
p3012
asS'12/2/2003'
p3013
(lp3014
S'Republic Bancshares Inc,FL'
p3015
ag481
asS'1/6/2015'
p3016
(lp3017
S'C Financial Corp'
p3018
ag580
asS'9/9/1998'
p3019
(lp3020
S'First Bolivar Capital Corp'
p3021
aS'First M&F Corp,Kosciusko,MS'
p3022
asS'9/9/1994'
p3023
(lp3024
S'Atlantic Community Bancorp Inc'
p3025
ag716
asS'9/9/1997'
p3026
(lp3027
S'United American Holding Corp'
p3028
ag80
asS'12/3/2006'
p3029
(lp3030
S'Mellon Financial,Pittsburgh,PA'
p3031
ag792
asS'12/3/2001'
p3032
(lp3033
S'First Mercantile Bk of Dallas'
p3034
ag80
asS'9/9/1993'
p3035
(lp3036
S'Pacific Western Bancshares,CA'
p3037
ag367
asS'9/9/1992'
p3038
(lp3039
S'Multibank Financial Corp'
p3040
ag754
asS'1/21/1993'
p3041
(lp3042
S'Mickler Corp'
p3043
ag2524
asS'1/21/1997'
p3044
(lp3045
S'Old North State Bank,NC'
p3046
aS'LSB Bancshares,Lexington,NC'
p3047
asS'10/12/2005'
p3048
(lp3049
S'Crockett County Bancshares,TN'
p3050
ag3022
asS'1/21/1998'
p3051
(lp3052
S'Merchants Bancshares Inc,TX'
p3053
ag292
asS'10/15/2010'
p3054
(lp3055
S'Fort Orange Financial Corp'
p3056
ag1836
asS'7/26/1983'
p3057
(lp3058
S'Cullen/Frost Bankers Inc'
p3059
aS'First City Bancorp of Texas'
p3060
asS'5/6/1987'
p3061
(lp3062
S'CitizensTrust Bancorp Inc,MI'
p3063
aS'Trustcorp Inc,Toledo,Ohio'
p3064
asS'2/8/1988'
p3065
(lp3066
S'Northwestern Commercial Bk,WA'
p3067
ag2373
asS'6/12/1989'
p3068
(lp3069
S'Steiner Bank,Birmingham,AL'
p3070
ag292
asS'11/26/1996'
p3071
(lp3072
S'Peoples Bank of Unity,PA'
p3073
ag1117
asS'10/23/2001'
p3074
(lp3075
S'Quitman Bancorp Inc'
p3076
aS'Colony Bankcorp,Fitzgerald,GA'
p3077
asS'11/26/1991'
p3078
(lp3079
S'Omni Capital Group Inc'
p3080
aS'Security Capital Bancorp'
p3081
asS'11/21/2000'
p3082
(lp3083
S'Security Banc Corp,OH'
p3084
ag276
asS'7/11/2000'
p3085
(lp3086
S'CNB Holdings Inc,Alpharetta,GA'
p3087
ag1790
asS'5/25/2000'
p3088
(lp3089
S'First SW Bk,Frederick,OK'
p3090
aS'BancFirst Corp'
p3091
asS'5/25/2005'
p3092
(lp3093
S'Equinox Bk,Pembroke Pines,FL'
p3094
aS'Northwest Bancorp,Warren,PA'
p3095
asS'5/25/2006'
p3096
(lp3097
S'AmSouth Bancorp,Alabama'
p3098
aS'Regions Financial Corp'
p3099
asS'2/26/1997'
p3100
(lp3101
S'Glendale Co-Operative Bank,MA'
p3102
aS'MASSBank Corp'
p3103
asS'2/26/1990'
p3104
(lp3105
S'Farmers & Citizens State Bk,WV'
p3106
ag2853
asS'2/26/1992'
p3107
(lp3108
S'Cornerstone Bancshares Inc'
p3109
ag147
asS'2/26/1993'
p3110
(lp3111
S'First American Metro Corp'
p3112
ag56
asS'8/2/1993'
p3113
(lp3114
S'Constellation Bancorp'
p3115
ag576
asS'3/21/1994'
p3116
(lp3117
S'Fayette County Bancshares,GA'
p3118
ag2221
asS'5/31/2006'
p3119
(lp3120
S'Royal Palm Bancorp Inc,Naples,'
p3121
aS'Mercantile Bancorp Inc'
p3122
asS'5/31/2007'
p3123
(lp3124
S'Eagle Fidelity Inc'
p3125
ag1948
asS'5/31/2001'
p3126
(lp3127
S'First Gaston Bank of North'
p3128
aS'Catawba Valley Bancshares'
p3129
asS'5/31/2002'
p3130
(lp3131
S'Cardinal Bankshares Corp,VA'
p3132
ag522
asS'3/5/1986'
p3133
(lp3134
S'BankAmerica Corp'
p3135
ag1627
asS'11/20/2015'
p3136
(lp3137
S'Fox River Valley Bancorp Inc'
p3138
aS'County Bancorp Inc'
p3139
asS'1/20/1997'
p3140
(lp3141
S'Shawnee State Bank,Kansas'
p3142
ag2357
asS'1/20/1993'
p3143
(lp3144
S'Nichols Hills Bancorp'
p3145
ag405
asS'1/20/1992'
p3146
(lp3147
S'First American Bank of Georgia'
p3148
ag425
asS'9/5/1995'
p3149
(lp3150
S'Bank South Corp,Atlanta,GA'
p3151
ag1121
asS'9/5/1997'
p3152
(lp3153
S'Oswego County Svgs Bk,NY'
p3154
aS'Oswego City Svgs Bk,Oswego,NY'
p3155
asS'8/10/1989'
p3156
(lp3157
S'First National Bk,Wyoming,PA'
p3158
aS'First Eastern Corp,PA'
p3159
asS'9/13/2013'
p3160
(lp3161
S'Rogers Bancshares Inc,AR'
p3162
aS'Simmons First Natl Corp'
p3163
asS'9/13/2012'
p3164
(lp3165
S'Citizens Republic Bancorp Inc'
p3166
ag888
asS'9/13/2011'
p3167
(lp3168
S'Texas Bankers Inc,Austin,Texas'
p3169
ag36
asS'9/13/2010'
p3170
(lp3171
S'DG Bancorp Inc'
p3172
aS'BankFinancial Corp,Il'
p3173
asS'6/7/1994'
p3174
(lp3175
S'Hinton Financial Corp'
p3176
ag2678
asS'6/7/1995'
p3177
(lp3178
S'Jessamine First Federal'
p3179
aS'Bourbon Bancshares Inc,KY'
p3180
asS'6/7/1999'
p3181
(lp3182
S'Mahoning National Bancorp'
p3183
ag280
asS'2/4/1987'
p3184
(lp3185
S'United Bancorp of Maryland Inc'
p3186
ag32
asS'11/22/2015'
p3187
(lp3188
S'American Chartered Bancorp Inc'
p3189
aS'MB Financial Inc'
p3190
asS'12/9/2013'
p3191
(lp3192
S'Bancshares Inc'
p3193
ag284
asS'8/24/2000'
p3194
(lp3195
S'Millennium Bank,San Francisco'
p3196
ag100
asS'8/24/2007'
p3197
(lp3198
S'Centennial Bancshares Inc,AR'
p3199
ag1221
asS'1/2/2001'
p3200
(lp3201
S'First National Bancorp Inc'
p3202
ag1050
asS'3/1/1988'
p3203
(lp3204
S'Grand Bancshares Inc,Dallas,TX'
p3205
ag367
asS'3/1/1989'
p3206
(lp3207
S'Pickens County Bancshares Inc'
p3208
ag1682
asS'4/9/1990'
p3209
(lp3210
S"People's Bk of Central VA"
p3211
ag1004
asS'1/9/1996'
p3212
(lp3213
S'Community State Bank,Wisconsin'
p3214
ag826
asS'5/15/1986'
p3215
(lp3216
S'Nashville CityBank,Tennessee'
p3217
ag20
asS'8/19/2008'
p3218
(lp3219
S'Bank of the San Juans Bancorp'
p3220
ag139
asS'5/15/1989'
p3221
(lp3222
S'SBH Corp'
p3223
aS'Pinnacle Banc Grp,Oak Brook,IL'
p3224
asS'8/19/2003'
p3225
(lp3226
S'Abbeville Capital Corp,SC'
p3227
aS'Community Capital Corp,SC'
p3228
asS'1/9/1998'
p3229
(lp3230
S'Fort Wayne Natl Corp,Indiana'
p3231
ag1201
asS'11/3/2000'
p3232
(lp3233
S'Prime Bank,Los Angeles,CA'
p3234
ag1443
asS'11/3/2003'
p3235
(lp3236
S'Southern Finl Bancorp Inc,VA'
p3237
ag1944
asS'12/19/2012'
p3238
(lp3239
S'Bancorp Inc'
p3240
aS'SY Bancorp Inc,Louisville,KY'
p3241
asS'11/3/2009'
p3242
(lp3243
S'First Keystone Financial Inc'
p3244
ag1993
asS'8/14/2013'
p3245
(lp3246
S'Savannah River Financial Corp'
p3247
ag115
asS'8/14/2015'
p3248
(lp3249
S'Southcoast Financial Corp,SC'
p3250
ag1417
asS'4/27/2006'
p3251
(lp3252
S'Laurel Capital Group Inc'
p3253
ag379
asS'1/17/1992'
p3254
(lp3255
S'Flagship Financial Corp'
p3256
ag778
asS'1/17/1990'
p3257
(lp3258
S'Peoples Bancorp,Rocky Mount,NC'
p3259
aS'Planters Corp'
p3260
asS'1/17/1996'
p3261
(lp3262
S'Southern Arizona Bancorp Inc'
p3263
ag390
asS'4/3/1986'
p3264
(lp3265
S'KBT Corp,Madisonville,KY'
p3266
aS'Liberty United Bancorp Inc,KY'
p3267
asS'4/3/1985'
p3268
(lp3269
S'Undisclosed Philadelphia Bank'
p3270
aS'Equimark Corp,Pittsburgh,PA'
p3271
asS'6/18/2014'
p3272
(lp3273
S'Valley Green Bank'
p3274
aS'Univest Corp of Pennsylvania'
p3275
asS'8/3/2006'
p3276
(lp3277
S'ONB Corp,Clifton Springs,NY'
p3278
ag443
asS'8/3/2005'
p3279
(lp3280
S'Asian American Bank & Trust,MA'
p3281
ag2171
asS'8/29/2006'
p3282
(lp3283
S'Old Florida Bankshares Inc,FL'
p3284
ag2105
asS'4/2/2015'
p3285
(lp3286
S'Suburban Illinois Bancorp,IL'
p3287
ag858
asS'2/1/1988'
p3288
(lp3289
S'Taney County Bancorp'
p3290
aS'Landmark Bancshares Corp'
p3291
asS'4/26/1995'
p3292
(lp3293
S'DSB Bancshares Inc'
p3294
ag3163
asS'9/15/1999'
p3295
(lp3296
g2183
ag2184
asS'4/26/1993'
p3297
(lp3298
S'Grange Natl Bk,New Milford PA'
p3299
ag966
asS'4/30/2012'
p3300
(lp3301
S'Central Bancorp Inc,MA'
p3302
ag1246
asS'9/15/1992'
p3303
(lp3304
S'Buffalo Bank'
p3305
ag2678
asS'9/25/2003'
p3306
(lp3307
S'Caledonia Finl Corp,MI'
p3308
ag1290
asS'9/25/2002'
p3309
(lp3310
S'United Financial Holdings Inc'
p3311
ag1347
asS'10/20/2014'
p3312
(lp3313
g476
aS'ServisFirst Bancshares Inc'
p3314
asS'10/20/2015'
p3315
(lp3316
S'KeyWorth Bank,Atlanta,Georgia'
p3317
aS'Renasant Corp'
p3318
asS'5/3/2004'
p3319
(lp3320
S'Central Bank of Houston-Br(2)'
p3321
ag974
asS'1/16/2001'
p3322
(lp3323
S'Guaranty Bank NA,Wilkes-Barre,'
p3324
aS'Sun Bancorp Inc,Selinsgrove,PA'
p3325
asS'1/23/2007'
p3326
(lp3327
S'First Haralson Corp'
p3328
aS'WGNB Corp'
p3329
asS'1/23/2006'
p3330
(lp3331
S'Fulton Bancshares Corp ,pa'
p3332
aS'Franklin Financial Services'
p3333
asS'1/23/2004'
p3334
(lp3335
S'Union Planters Corp,Memphis,TN'
p3336
ag3099
asS'7/22/2014'
p3337
(lp3338
S'Madison Bancorp Inc'
p3339
aS'Codorus Valley Bancorp Inc'
p3340
asS'3/9/2007'
p3341
(lp3342
S'Worth Bancorp Inc,Texas'
p3343
ag743
asS'9/23/1986'
p3344
(lp3345
S'First Pennsylvania Corp'
p3346
aS'Marine Midland Banks Inc'
p3347
asS'3/27/1997'
p3348
(lp3349
S'Bk of Mecklenburg,Charlotte,NC'
p3350
ag716
asS'3/27/1995'
p3351
(lp3352
S'Putnam Trust Co'
p3353
ag792
asS'3/27/1992'
p3354
(lp3355
S'Magna Bank of Sthrn Missouri'
p3356
aS'Capital Bancorp'
p3357
asS'3/27/1991'
p3358
(lp3359
S'Morgan Community Bancorp,IL'
p3360
ag409
asS'6/4/2002'
p3361
(lp3362
S'PFSB Bancorp Inc,Palmyra'
p3363
aS'First Federal Bancshares,IL'
p3364
asS'6/4/2004'
p3365
(lp3366
S'Wayne Bancorp Inc,Wooster,OH'
p3367
ag1201
asS'3/14/1996'
p3368
(lp3369
S'CitNat Bancorp Inc,Urbana,OH'
p3370
ag1732
asS'3/27/1998'
p3371
(lp3372
S'CNB Holding Co'
p3373
ag80
asS'6/4/2007'
p3374
(lp3375
S'Cmnty Bk & Tr Co,Wolfeboro,NH'
p3376
ag770
asS'2/23/2007'
p3377
(lp3378
S'Bk of Chickamauga,Chickamauga'
p3379
ag2740
asS'3/11/1993'
p3380
(lp3381
S'HomeTown Bancorp,Myersville'
p3382
aS'First United Corp,Oakland,MD'
p3383
asS'3/11/1991'
p3384
(lp3385
S'Ameriway Bank NA'
p3386
ag147
asS'5/26/1989'
p3387
(lp3388
S'First Security Bk,Hillsboro,OH'
p3389
ag1656
asS'3/11/1994'
p3390
(lp3391
S'Midlothian State Bank'
p3392
aS'Heritage Financial Services'
p3393
asS'4/24/2014'
p3394
(lp3395
S'Idaho Bancorp'
p3396
ag2658
asS'8/27/2007'
p3397
(lp3398
S'Carolina National Corp'
p3399
aS'First National Bancshares Inc'
p3400
asS'10/11/2007'
p3401
(lp3402
S"Slade's Ferry Bancorp,MA"
p3403
ag1246
asS'3/14/1999'
p3404
(lp3405
S'BankBoston Corp,Boston,MA'
p3406
ag2198
asS'2/27/2012'
p3407
(lp3408
S'American State Financial Corp'
p3409
ag819
asS'3/3/2015'
p3410
(lp3411
S'Patapsco Bancorp Inc'
p3412
aS'Howard Bancorp Inc'
p3413
asS'3/20/1985'
p3414
(lp3415
g3202
ag425
asS'4/19/2000'
p3416
(lp3417
S'Rockingham Heritage Bank'
p3418
aS'Marathon Financial Corp'
p3419
asS'4/19/2006'
p3420
(lp3421
S'Homestead Bank,Suwanee,GA'
p3422
ag1486
asS'4/19/2005'
p3423
(lp3424
S'Gibraltar Financial Corp,FL'
p3425
aS'Boston Private Financial Hldg'
p3426
asS'1/16/2003'
p3427
(lp3428
S'Premier Bancorp Inc'
p3429
ag214
asS'11/16/2005'
p3430
(lp3431
S'SNB Bancshares Inc,TX'
p3432
ag36
asS'11/16/2004'
p3433
(lp3434
S'PennRock Finl Svcs Corp,PA'
p3435
aS'Cmnty Banks Inc,Harrisburg,PA'
p3436
asS'1/16/2007'
p3437
(lp3438
S'Morgan Bancorp Inc,Hudson,OH'
p3439
aS'LNB Bancorp Inc'
p3440
asS'11/5/1999'
p3441
(lp3442
S'MegaBank Financial Corp'
p3443
ag504
asS'6/19/1989'
p3444
(lp3445
S'Trustcorp Inc,Toledo,Ohio'
p3446
ag1435
asS'11/5/1993'
p3447
(lp3448
S'Woodland Bancorp Inc,Tulsa,OK'
p3449
ag758
asS'11/5/1992'
p3450
(lp3451
S'NorthPark National Corp'
p3452
ag367
asS'6/29/1994'
p3453
(lp3454
S'Presidential Holding Co'
p3455
ag409
asS'7/29/1985'
p3456
(lp3457
S'American Bancorp,Newport,KY'
p3458
ag1656
asS'6/29/1999'
p3459
(lp3460
S'Southern Jersey Bancorp,NJ'
p3461
ag1399
asS'6/29/1998'
p3462
(lp3463
S'Poinsett Financial Corp'
p3464
ag1463
asS'7/29/1988'
p3465
(lp3466
S'Suisun Valley Bank'
p3467
aS'Napa Valley Bancorp'
p3468
asS'10/21/2015'
p3469
(lp3470
S'Heritage Bankshares Inc,VA'
p3471
aS'Southern BancShares(NC)Inc'
p3472
asS'1/26/2000'
p3473
(lp3474
S'Hanover Bancorp Inc,Hanover,PA'
p3475
ag194
asS'1/26/2001'
p3476
(lp3477
S'Maine Bank Corp,Portland,Maine'
p3478
ag770
asS'8/6/1990'
p3479
(lp3480
S'Banks of Iowa Inc'
p3481
ag218
asS'8/6/1997'
p3482
(lp3483
S'GSB Investments,Gainesville,FL'
p3484
ag504
asS'8/6/1996'
p3485
(lp3486
S'Security National Bank,TX'
p3487
ag613
asS'1/26/2007'
p3488
(lp3489
S'Premier Community Bankshares'
p3490
ag206
asS'7/21/2006'
p3491
(lp3492
S'Cactus Commerce Bank,Glendale'
p3493
ag728
asS'8/6/1998'
p3494
(lp3495
S'Arkansas Banking,Jonesboro,AR'
p3496
ag4
asS'7/21/2003'
p3497
(lp3498
S'MainBancorp Inc,Austin,TX'
p3499
ag36
asS'12/10/1998'
p3500
(lp3501
S'First Philson Financial Corp'
p3502
ag1532
asS'12/10/1997'
p3503
(lp3504
S'Haymarket Cooperative Bank'
p3505
aS'Century Bancorp Inc,Medford,MA'
p3506
asS'12/10/1996'
p3507
(lp3508
S'Farmers Bk of Mardela Springs'
p3509
ag1147
asS'12/10/1990'
p3510
(lp3511
S'JSB Bancorp'
p3512
ag2404
asS'9/14/1992'
p3513
(lp3514
S'First National Bak of Flora,IL'
p3515
ag984
asS'9/14/1994'
p3516
(lp3517
S'First Natl Bk of Bay City,TX'
p3518
ag1165
asS'10/25/2004'
p3519
(lp3520
S'Clyde Financial Corp'
p3521
ag12
asS'10/25/2000'
p3522
(lp3523
S'Interbancorp Inc,Duvall,WA'
p3524
ag1581
asS'2/9/1996'
p3525
(lp3526
S'Bank of Weirton,Weirton,WV'
p3527
ag151
asS'6/19/1985'
p3528
(lp3529
S'Citizens Natl Bk & Tr,Kansas'
p3530
ag405
asS'6/19/1986'
p3531
(lp3532
S'First Bank Capital, Tupelo, MS'
p3533
ag2206
asS'11/14/1996'
p3534
(lp3535
S'Merchants Bancshares Inc,MS'
p3536
ag455
asS'11/14/1995'
p3537
(lp3538
S'Smoky Mtn Bancorp,Gatlinburg'
p3539
ag687
asS'12/3/2015'
p3540
(lp3541
S'CBS Financial Corp'
p3542
aS'Charter Financial Corp'
p3543
asS'10/12/2010'
p3544
(lp3545
S'Rome Bancorp Inc,Rome,NY'
p3546
aS'Berkshire Hills Bancorp Inc'
p3547
asS'7/15/1999'
p3548
(lp3549
S'Minden Bancshares Inc,LA'
p3550
ag4
asS'10/28/2013'
p3551
(lp3552
S'Eaton Natl Bnk&Trst,Eaton,Ohio'
p3553
aS'LCNB Corp'
p3554
asS'6/20/2003'
p3555
(lp3556
S'Lakes Region Bancorp,IL'
p3557
ag2714
asS'7/15/1993'
p3558
(lp3559
S'First Financial Services Inc'
p3560
ag292
asS'4/18/2000'
p3561
(lp3562
S'Heritage Bancorp Inc,McLean,VA'
p3563
aS'Cardinal Financial Corp'
p3564
asS'7/15/1991'
p3565
(lp3566
S'Manufacturers Hanover Corp'
p3567
ag1743
asS'7/15/1996'
p3568
(lp3569
S'North Side Savings Bank,NY'
p3570
ag477
asS'2/8/1993'
p3571
(lp3572
S'Midwest Bancorporation,Hays,KS'
p3573
ag2357
asS'8/7/1998'
p3574
(lp3575
S'Southeast Bancorp Inc,KY'
p3576
ag292
asS'2/8/1996'
p3577
(lp3578
S'Cedar Creek Bancshares Inc,TX'
p3579
ag613
asS'8/7/1995'
p3580
(lp3581
S'FirsTier Financial Inc'
p3582
ag119
asS'8/7/1997'
p3583
(lp3584
S'1st United Bancorp,FL'
p3585
ag16
asS'3/4/1991'
p3586
(lp3587
S'Gleneagles Natl,Bk Las Colinas'
p3588
ag147
asS'3/4/1992'
p3589
(lp3590
S'Puget Sound Bancorp,Tacoma,WA'
p3591
ag2073
asS'3/4/1994'
p3592
(lp3593
S'Plano Bancshares Inc'
p3594
aS'First National Bancorp Inc,IL'
p3595
asS'8/31/1989'
p3596
(lp3597
S'NBWC Corp'
p3598
ag1347
asS'3/4/1999'
p3599
(lp3600
S'FirstBancorp Inc,Beaufort,SC'
p3601
aS'First National Corp,SC'
p3602
asS'6/23/2015'
p3603
(lp3604
S'Fairfield Finl Hldg Corp'
p3605
aS'Northwest Bancorp Inc'
p3606
asS'4/14/1998'
p3607
(lp3608
S'ComSouth Bankshares Inc'
p3609
ag2490
asS'9/2/2004'
p3610
(lp3611
S'First Cmnty Capital Corp,TX'
p3612
ag1362
asS'12/20/1999'
p3613
(lp3614
S'Permanent Bancorp Inc,Indiana'
p3615
ag175
asS'12/20/1996'
p3616
(lp3617
S'Southwest Bancshares,Arkansas'
p3618
ag613
asS'6/28/2004'
p3619
(lp3620
S'Cuyamaca Bank NA,CA'
p3621
aS'Community Bancorp Inc'
p3622
asS'12/20/1994'
p3623
(lp3624
S'Morris State Bancorporation,MN'
p3625
aS'Bremer Financial(Bremer Otto)'
p3626
asS'12/20/1995'
p3627
(lp3628
S'Manchester State Bank,CT'
p3629
ag720
asS'6/28/2001'
p3630
(lp3631
S'Borel Bank & Trust Co,CA'
p3632
ag3426
asS'6/28/2000'
p3633
(lp3634
S'Coml Bank of San Francisco'
p3635
ag100
asS'12/20/1991'
p3636
(lp3637
S'Summcorp,Fort Wayne,Indiana'
p3638
ag466
asS'3/5/1996'
p3639
(lp3640
S'Farmers Deposit Bancorp,KY'
p3641
ag470
asS'3/5/1993'
p3642
(lp3643
S'United Southern Bank,TN'
p3644
ag32
asS'3/5/1992'
p3645
(lp3646
S'Sunwest Finl Svcs,Albuquerque'
p3647
ag758
asS'6/26/1989'
p3648
(lp3649
S'First Woburn Bancorp,Woburn,MA'
p3650
ag3103
asS'1/20/1989'
p3651
(lp3652
S'First Security Bank of Tacoma'
p3653
aS'Moore Financial Group Inc'
p3654
asS'1/20/1986'
p3655
(lp3656
S'American Natl Hldg,Kalamazoo'
p3657
ag914
asS'6/26/1986'
p3658
(lp3659
S'Third Natl Bk & Tr,Scranton,PA'
p3660
aS'Independence Bancorp,Perkasie'
p3661
asS'4/23/2015'
p3662
(lp3663
S'Focus Business Bank,San Jose'
p3664
aS'Heritage Commerce Corp'
p3665
asS'3/19/2014'
p3666
(lp3667
S'Riverside Bank'
p3668
aS'Salisbury Bancorp Inc'
p3669
asS'9/13/2000'
p3670
(lp3671
S'Citizens National Bk of Malone'
p3672
ag443
asS'9/13/2005'
p3673
(lp3674
S'Cedars Bank'
p3675
ag436
asS'10/2/1989'
p3676
(lp3677
S'First Community Bancorp Inc PA'
p3678
ag214
asS'5/27/1997'
p3679
(lp3680
S'Pacific National Corp,MA'
p3681
aS'BankBoston Corp,Boston,MA'
p3682
asS'6/7/1988'
p3683
(lp3684
S'Webster County Natl Bk,WV'
p3685
ag206
asS'3/1/1991'
p3686
(lp3687
S'First Interstate Bank of OK'
p3688
ag758
asS'3/1/1996'
p3689
(lp3690
S'American Bancshares of Houma'
p3691
ag4
asS'11/27/2001'
p3692
(lp3693
S'SBC Financial Corp'
p3694
aS'Oneida Financial Corp'
p3695
asS'1/27/2000'
p3696
(lp3697
S'GBT Bancorp Inc,Gloucester,MA'
p3698
aS'Andover Bancorp Inc,Andover,MA'
p3699
asS'11/27/2007'
p3700
(lp3701
S'Traders Bankshares Inc,WV'
p3702
ag470
asS'8/19/2010'
p3703
(lp3704
S'NewAlliance Bancshares Inc,CT'
p3705
ag222
asS'4/9/1984'
p3706
(lp3707
g884
ag32
asS'4/9/1986'
p3708
(lp3709
S'Georgia ST Bancshares,Mableton'
p3710
ag56
asS'12/19/2008'
p3711
(lp3712
S'Provident Bankshares Corp,MD'
p3713
ag2662
asS'12/19/2001'
p3714
(lp3715
S'Independence Bank Kernersville'
p3716
aS'Bank of North Carolina,NC'
p3717
asS'12/19/2003'
p3718
(lp3719
S'Guaranty Financial Corp,VA'
p3720
aS'Union Bankshares Corp,VA'
p3721
asS'12/13/2001'
p3722
(lp3723
S'Tejas Bancshares Inc,Amarillo,'
p3724
ag1362
asS'2/10/2014'
p3725
(lp3726
S'Mountain West Financial Corp'
p3727
aS'First Interstate BancSystem In'
p3728
asS'8/14/2006'
p3729
(lp3730
S'Anderson Bank Co'
p3731
ag276
asS'9/26/1994'
p3732
(lp3733
g1183
ag2357
asS'8/14/2002'
p3734
(lp3735
S'Herkimer Trust Corporation Inc'
p3736
aS'Partners Trust Financial Group'
p3737
asS'2/10/2012'
p3738
(lp3739
S'Heartland Bancshares Inc,IN'
p3740
aS'Horizon Bancorp,IN'
p3741
asS'3/31/2011'
p3742
(lp3743
S'Community Capital Corp,SC'
p3744
aS'Park Sterling Corp'
p3745
asS'3/31/2015'
p3746
(lp3747
S'Easton Bancorp Inc'
p3748
aS'Delmarva Bancshares Inc'
p3749
asS'1/5/2007'
p3750
(lp3751
S'Penn Laurel Financial Corp'
p3752
ag3095
asS'6/18/2003'
p3753
(lp3754
S'Independent Bankshares Corp'
p3755
aS'Greene County Bancshares Inc'
p3756
asS'6/18/2001'
p3757
(lp3758
S'Manufacturers Bank of Florida'
p3759
ag80
asS'6/18/2007'
p3760
(lp3761
S'Ohio County Bancshares Inc'
p3762
aS'Porter Bancorp Inc'
p3763
asS'6/18/2008'
p3764
(lp3765
S'HNB Bancorp Inc,Halifax,PA'
p3766
aS'First Perry Bancorp Inc'
p3767
asS'10/7/2003'
p3768
(lp3769
S'Alliance Bancorp Inc,AR'
p3770
ag3163
asS'10/7/2002'
p3771
(lp3772
S'North State National Bank,CA'
p3773
ag2225
asS'2/17/1992'
p3774
(lp3775
S'Security Financial Group Inc'
p3776
aS'Metropolitan Financial Corp'
p3777
asS'2/17/1993'
p3778
(lp3779
S'Commercial Landmark Corp'
p3780
ag405
asS'2/17/1994'
p3781
(lp3782
S'Pioneer Financial Corp'
p3783
ag1027
asS'2/17/1995'
p3784
(lp3785
S'FBC Holding Co Ltd'
p3786
ag425
asS'2/17/1998'
p3787
(lp3788
S'Sandwich Bancorp,Sandwich,MA'
p3789
aS'Cape Cod Bank & Trust,MA'
p3790
asS'6/1/2015'
p3791
(lp3792
S'CertusBk NA,Greenville,SC-Bran'
p3793
ag1417
asS'8/12/2003'
p3794
(lp3795
S'California Independent Bancorp'
p3796
ag1306
asS'8/23/1993'
p3797
(lp3798
S'Houghton Financial Inc'
p3799
aS'Michigan Financial Corp'
p3800
asS'8/23/1995'
p3801
(lp3802
S'Metro Financial Corp'
p3803
ag4
asS'4/30/2001'
p3804
(lp3805
S'National City Bancorp'
p3806
ag595
asS'9/15/1987'
p3807
(lp3808
g905
ag3159
asS'4/30/2009'
p3809
(lp3810
S'Nuestro Banco,Raleigh,NC'
p3811
ag2955
asS'9/25/2012'
p3812
(lp3813
S'ECB Bancorp Inc,Engelhard,NC'
p3814
aS'Crescent Financial Bancshares'
p3815
asS'10/20/2005'
p3816
(lp3817
S'Calnet Business Bank,CA'
p3818
aS'Coml Capital Bancorp Inc,CA'
p3819
asS'1/8/2009'
p3820
(lp3821
S'Butler Wick Trust Co Inc'
p3822
aS'Farmers National Banc Corp'
p3823
asS'2/25/1998'
p3824
(lp3825
S'Rappahannock Bancshares,VA'
p3826
ag3721
asS'7/14/2005'
p3827
(lp3828
S'Thompson Falls Hldg Co,MT'
p3829
ag139
asS'5/3/2012'
p3830
(lp3831
S'Alliance Bankshares Corp,VA'
p3832
aS'WashingtonFirst Bankshare Inc'
p3833
asS'1/8/2003'
p3834
(lp3835
S'First Central Bancshares,TN'
p3836
ag1840
asS'2/25/1992'
p3837
(lp3838
S'Crater Bank,Central Point,OR'
p3839
ag1524
asS'1/8/2004'
p3840
(lp3841
S'Second Bancorp Inc,Warren,OH'
p3842
ag280
asS'2/25/1997'
p3843
(lp3844
S'First Bank of West Hartford,CT'
p3845
ag720
asS'8/16/1995'
p3846
(lp3847
S'Bergen Commercial Bank,NJ'
p3848
aS'Great Falls Bancorp'
p3849
asS'8/16/1994'
p3850
(lp3851
S'First State Bk& Trust Co,LA'
p3852
ag335
asS'7/12/1989'
p3853
(lp3854
S'Equitable Bancorp,Baltimore,MD'
p3855
aS'MNC Financial Inc'
p3856
asS'12/29/2004'
p3857
(lp3858
S'Liberty Bank &Trust,Toccoa,GA'
p3859
aS'Habersham Bancorp,Cornelia,GA'
p3860
asS'12/29/2005'
p3861
(lp3862
S'Intermountain First Bancorp'
p3863
aS'Western Alliance Bancorp,NV'
p3864
asS'1/23/2014'
p3865
(lp3866
S'Alpena Banking Corp'
p3867
aS'First Federal of Northern,MI'
p3868
asS'8/16/1999'
p3869
(lp3870
S'Lake Ariel Bancorp Inc,PA'
p3871
ag1050
asS'8/30/1999'
p3872
(lp3873
S'Reliance Bancorp Inc,New York'
p3874
ag477
asS'3/26/2015'
p3875
(lp3876
S'Absarokee Bancorp'
p3877
ag3728
asS'8/30/1994'
p3878
(lp3879
S'United Counties Bancorp'
p3880
ag2015
asS'8/30/1996'
p3881
(lp3882
S"Boatmen's Bancshares,St Louis"
p3883
ag1121
asS'3/26/2013'
p3884
(lp3885
S'FC Banc Corp,Bucyrus,Ohio'
p3886
aS'CNB Financial Corp'
p3887
asS'3/26/2012'
p3888
(lp3889
S'Oceanic Bank Holding Inc'
p3890
aS'FNB Bancorp'
p3891
asS'11/10/1998'
p3892
(lp3893
S'Security Bank Corp'
p3894
ag1004
asS'3/5/2014'
p3895
(lp3896
S'Provident Comnty Bancshares'
p3897
ag3745
asS'12/3/1997'
p3898
(lp3899
S'Bank Holding Co,Griffin,GA'
p3900
ag658
asS'11/10/1992'
p3901
(lp3902
S'Dorn Banking Co'
p3903
aS'LSB Bancshares Inc of SC'
p3904
asS'11/29/2000'
p3905
(lp3906
S'First Liberty Bank,PA'
p3907
ag443
asS'7/22/2005'
p3908
(lp3909
S'Sun Bancshares Inc,SC'
p3910
ag2384
asS'11/29/2005'
p3911
(lp3912
S'Wachovia Corp-Corporate Trust'
p3913
ag60
asS'9/23/1992'
p3914
(lp3915
g1685
aS'GAB Bancorp'
p3916
asS'9/23/1996'
p3917
(lp3918
S'Broadway Capital,Chelsea,MA'
p3919
aS'BostonFed Bancorp Inc,MA'
p3920
asS'9/23/1997'
p3921
(lp3922
S'First United Bancorp,SC'
p3923
ag4
asS'6/3/2014'
p3924
(lp3925
S'Houston Community Bank'
p3926
ag1467
asS'1/14/1988'
p3927
(lp3928
S'IB&T Corp,Boise,Idaho'
p3929
ag2073
asS'6/4/2012'
p3930
(lp3931
S'First Trust Bank,Charlotte,NC'
p3932
ag1417
asS'1/14/1987'
p3933
(lp3934
S'Liberty State Bk,Mt Carmel,PA'
p3935
ag966
asS'1/14/1986'
p3936
(lp3937
S'National Bank of Commerce,DC'
p3938
ag20
asS'7/23/1996'
p3939
(lp3940
S'Tuscaloosa Bancshares,LA'
p3941
ag2206
asS'7/23/1997'
p3942
(lp3943
S'South Florida Banking Corp,FL'
p3944
ag80
asS'7/7/1995'
p3945
(lp3946
S'Security Bank of Conway,AR'
p3947
ag984
asS'7/7/1994'
p3948
(lp3949
S'Washington Bancorp Inc'
p3950
ag676
asS'7/23/1991'
p3951
(lp3952
S'Utah Bank&Trust,Salt Lake City'
p3953
ag1753
asS'3/11/1986'
p3954
(lp3955
S'Pacwest Bancorp,Portland,OR'
p3956
ag2073
asS'2/18/1991'
p3957
(lp3958
S'Independence Bancorp-Credit'
p3959
ag202
asS'3/13/2003'
p3960
(lp3961
S'F&M Bancorp,Frederick,MD'
p3962
ag1147
asS'10/8/1996'
p3963
(lp3964
S'South Hillsborough Cmnty Bk,FL'
p3965
aS'Provident Bancorp,OH'
p3966
asS'2/18/1992'
p3967
(lp3968
S'Parke State Bank,Rockville,IN'
p3969
ag202
asS'2/18/1994'
p3970
(lp3971
S'First Community Bank of Henry'
p3972
aS'Bank Holding Co,Griffin,GA'
p3973
asS'2/18/1997'
p3974
(lp3975
S'First Commerce Banks of FL,FL'
p3976
ag80
asS'2/18/1999'
p3977
(lp3978
S'State Bank of Remington,VA'
p3979
ag1857
asS'2/18/1998'
p3980
(lp3981
S'Humble National Bank,Houston'
p3982
ag1585
asS'8/22/2001'
p3983
(lp3984
S'Pacific Western National Bank'
p3985
ag436
asS'8/22/2000'
p3986
(lp3987
S'Shoreline Financial Corp,MI'
p3988
ag1290
asS'7/17/2014'
p3989
(lp3990
S'Santa Clara Valley Bank NA,CA'
p3991
aS'Sierra Bancorp,Porterville,CA'
p3992
asS'3/19/1999'
p3993
(lp3994
S'Merit Holding Corp,Tucker,GA'
p3995
ag1347
asS'2/27/2008'
p3996
(lp3997
S'1st Independence Finl Grp,KY'
p3998
ag1757
asS'11/2/2000'
p3999
(lp4000
S'Bath National Corp'
p4001
aS'Financial Institutions Inc'
p4002
asS'11/2/2007'
p4003
(lp4004
S'GB&T Bancshares Inc,Georgia'
p4005
ag72
asS'11/2/2006'
p4006
(lp4007
S'Unison Bancorp Inc,Lenexa,'
p4008
aS'Blue Valley Ban Corp'
p4009
asS'2/27/2002'
p4010
(lp4011
S'WHG Bancshares Corp'
p4012
aS'BCSB Bancorp Inc'
p4013
asS'2/27/2004'
p4014
(lp4015
S'BankTrust of Florida'
p4016
aS'Vision Bancshares Inc'
p4017
asS'9/29/2008'
p4018
(lp4019
S'Wachovia Corp,NC-Bkg Op'
p4020
ag386
asS'9/29/2004'
p4021
(lp4022
S'Amer Horizons Bancorp Inc,LA'
p4023
ag609
asS'8/1/2001'
p4024
(lp4025
S'Salem Community Bankshares Inc'
p4026
ag1790
asS'8/1/2005'
p4027
(lp4028
S'Long Island Financial Corp,NY'
p4029
aS'New York Community Bancorp Inc'
p4030
asS'1/6/2003'
p4031
(lp4032
S'Pacific Business Bank,CA'
p4033
ag1443
asS'1/6/2000'
p4034
(lp4035
S'Commercial Guaranty Bancshares'
p4036
aS'Enterbank Holdings Inc,MO'
p4037
asS'1/6/2004'
p4038
(lp4039
S'First Heritage Bk,PA'
p4040
ag443
asS'1/16/2014'
p4041
(lp4042
S'Community Bank of San Joaquin'
p4043
ag1596
asS'2/5/2015'
p4044
(lp4045
S'Community Southern Holdings'
p4046
aS'Sunshine Bancorp Inc'
p4047
asS'1/10/1996'
p4048
(lp4049
S'Jacob Schmidt Co'
p4050
ag218
asS'5/20/2004'
p4051
(lp4052
S'Klein Bancshares Inc,TX'
p4053
ag1807
asS'6/16/1997'
p4054
(lp4055
S'First of America Bank-Florida'
p4056
ag996
asS'6/16/1995'
p4057
(lp4058
S'Wes-Tenn Bancorp Inc'
p4059
aS'BancorpSouth Inc'
p4060
asS'7/29/1997'
p4061
(lp4062
S'Surety Bank,Vallejo,California'
p4063
ag100
asS'6/16/1993'
p4064
(lp4065
g727
aS'Dauphin Deposit Corp,PA'
p4066
asS'5/21/2008'
p4067
(lp4068
S'Willow Financial Bancorp Inc'
p4069
ag485
asS'7/29/1993'
p4070
(lp4071
S'Parkway Bancorp,Illinois'
p4072
ag2524
asS'11/12/1996'
p4073
(lp4074
S'ValliCorp Holdings Inc,CA'
p4075
ag1902
asS'6/29/1989'
p4076
(lp4077
S'First Illini Bancorp Inc'
p4078
ag896
asS'5/21/2001'
p4079
(lp4080
S'Success Bancshares,Illinois'
p4081
ag3173
asS'11/12/1991'
p4082
(lp4083
S'Ameribanc Inc'
p4084
ag984
asS'11/12/1992'
p4085
(lp4086
S'Metro Bancorp,Waterlood,IA'
p4087
ag218
asS'11/12/1993'
p4088
(lp4089
g2306
ag2404
asS'3/9/2015'
p4090
(lp4091
S'IBT Bancorp Inc'
p4092
aS'Veritex Holdings Inc'
p4093
asS'4/22/1996'
p4094
(lp4095
S'Allegiance Banc,Bethesda,MD'
p4096
ag1004
asS'6/28/2007'
p4097
(lp4098
S'NCW Community Bank,Wenatchee'
p4099
ag2658
asS'11/1/2011'
p4100
(lp4101
S'BankAtlantic,FL'
p4102
ag481
asS'11/1/2010'
p4103
(lp4104
S'Wilmington Trust Corp,DE'
p4105
ag2662
asS'10/25/2011'
p4106
(lp4107
S'The Connecticut Bk & Trust Co'
p4108
ag3547
asS'10/25/2010'
p4109
(lp4110
S'Wilber Corp'
p4111
ag443
asS'2/9/1987'
p4112
(lp4113
S'BancServe Group,Rockford,IL'
p4114
ag409
asS'12/8/1994'
p4115
(lp4116
S'Chase Manhattan Bank-NY Br(15)'
p4117
ag443
asS'12/8/1993'
p4118
(lp4119
S'LSB Bancshares Inc of SC'
p4120
aS'BB&T Financial Corp'
p4121
asS'6/19/1997'
p4122
(lp4123
S'Culver National Bank,Culver'
p4124
aS'Bank of Los Angeles,CA'
p4125
asS'6/19/1995'
p4126
(lp4127
S'First Fidelity Bancorp,NJ'
p4128
ag56
asS'11/14/1985'
p4129
(lp4130
S'First Bankers Corp of Florida'
p4131
ag56
asS'4/1/2014'
p4132
(lp4133
S'Quinnipiac Bank And Trust Co'
p4134
aS'Bankwell Financial Group'
p4135
asS'4/1/2015'
p4136
(lp4137
S'FBC Bancshares Inc'
p4138
ag12
asS'7/15/1988'
p4139
(lp4140
S'First Interstate BK of In'
p4141
ag896
asS'6/20/2011'
p4142
(lp4143
S'Tower Bancorp Inc'
p4144
ag1739
asS'8/21/2007'
p4145
(lp4146
S'Greenville Cmnty Finl Corp'
p4147
aS'IBT Bancorp Inc,Mt Pleasant,MI'
p4148
asS'5/22/2001'
p4149
(lp4150
S'First Charter Bank NA'
p4151
ag436
asS'5/22/2002'
p4152
(lp4153
S'Monroe Finl,Greenville,WV'
p4154
ag459
asS'8/7/1989'
p4155
(lp4156
S'Woodburn Bancorp,Woodburn,OR'
p4157
ag2397
asS'8/7/1987'
p4158
(lp4159
S'Midwest Natl Bank Indianapolis'
p4160
ag2319
asS'8/7/1985'
p4161
(lp4162
S'First Interstate Corp of AK'
p4163
aS'Key Banks Inc'
p4164
asS'8/31/1992'
p4165
(lp4166
S'Sunrise Bancorp Inc,WV'
p4167
aS'Mountaineer Bankshares of WV'
p4168
asS'8/31/1993'
p4169
(lp4170
S'Guardian Bancshares Inc'
p4171
ag1585
asS'10/3/1985'
p4172
(lp4173
g2217
aS'Natl Bancshares Corp of TX,TX'
p4174
asS'3/4/1985'
p4175
(lp4176
S'Northwestern Fincl Corp,NC'
p4177
ag56
asS'8/31/1995'
p4178
(lp4179
S'Johnston County Bancshares Inc'
p4180
ag3091
asS'8/31/1999'
p4181
(lp4182
S'Firstbancorp-SC Branches(3)'
p4183
ag3602
asS'11/6/2006'
p4184
(lp4185
S'United Financial Corp,MT'
p4186
ag60
asS'3/19/2012'
p4187
(lp4188
S'Florida Gulf Bancorp Inc'
p4189
ag609
asS'11/4/1985'
p4190
(lp4191
S'BancTEXAS Tyler,Tyler,Texas'
p4192
aS'Texas American Bancshares Inc'
p4193
asS'11/4/1987'
p4194
(lp4195
S'Union National Corp,PA'
p4196
aS'Pennbancorp,Titusville,PA'
p4197
asS'11/4/1986'
p4198
(lp4199
S'Orbanco Finl Svcs Corp'
p4200
ag308
asS'11/6/2009'
p4201
(lp4202
S'United Commercial Bank,CA'
p4203
ag1443
asS'4/17/2000'
p4204
(lp4205
S'First United Bancshares Inc,AR'
p4206
ag4060
asS'11/18/1993'
p4207
(lp4208
S'Rio Salado Bancorp'
p4209
ag390
asS'6/28/2013'
p4210
(lp4211
S'Penseco Financial Services'
p4212
aS'Peoples Financial Services'
p4213
asS'11/13/2006'
p4214
(lp4215
S'Bank of Venice,Venice,Florida'
p4216
aS'TIB Financial Corp'
p4217
asS'3/19/2008'
p4218
(lp4219
S'Greater Community Bancorp'
p4220
ag371
asS'10/14/1985'
p4221
(lp4222
g4163
ag2073
asS'6/26/1998'
p4223
(lp4224
S'Gold Country National Bank'
p4225
ag123
asS'3/5/1998'
p4226
(lp4227
S'Public Bank Corp,St Cloud,FL'
p4228
ag96
asS'4/23/2007'
p4229
(lp4230
S'ABN AMRO North America Holding'
p4231
aS'Bank of America Corp'
p4232
asS'10/17/2000'
p4233
(lp4234
S'Timberline Bancshares Inc'
p4235
aS'PremierWest Bancorp,Medford,OR'
p4236
asS'5/8/2012'
p4237
(lp4238
S'First CA Finl Grp Inc'
p4239
ag1105
asS'5/8/2014'
p4240
(lp4241
S'1st United Bancorp,Boca Raton'
p4242
ag371
asS'5/8/2015'
p4243
(lp4244
S'NEW Bancshares Inc,Wisconsin'
p4245
aS'Baylake Corp'
p4246
asS'10/31/2003'
p4247
(lp4248
S'Stebbins Bancshares Inc,OH'
p4249
aS'Wayne Savings Bancshares Inc'
p4250
asS'10/31/2005'
p4251
(lp4252
S'Prosperity Bank & Trust Co,VA'
p4253
ag3721
asS'10/31/2006'
p4254
(lp4255
g2032
ag4060
asS'12/9/2004'
p4256
(lp4257
S'Northeast Pennsylvania Finl'
p4258
aS'KNBT Bancorp Inc,Bethlehem,PA'
p4259
asS'12/9/2003'
p4260
(lp4261
S'CCBT Financial Cos,Yarmouth,MA'
p4262
ag892
asS'12/7/1990'
p4263
(lp4264
S'Montgomery Bancorp, Mount'
p4265
ag1656
asS'8/10/2012'
p4266
(lp4267
S'CMS Bancorp Inc'
p4268
ag1097
asS'11/19/1997'
p4269
(lp4270
S'BCB Financial Services Corp,PA'
p4271
aS'Heritage Bancorp,Pottsville,PA'
p4272
asS'3/14/1986'
p4273
(lp4274
S'Citizen Natl Bk, Stevens Point'
p4275
ag300
asS'11/19/1993'
p4276
(lp4277
S'Independence Bancorp,Perkasie'
p4278
ag576
asS'11/19/1999'
p4279
(lp4280
S'Napa National Bancorp,CA'
p4281
ag1362
asS'7/16/1986'
p4282
(lp4283
S'Union Banc Corp, Kokomo, IN'
p4284
aS'First Indiana Corp,Indiana'
p4285
asS'9/12/2007'
p4286
(lp4287
S'Peoples Comnty Bancorp Inc,OH'
p4288
aS'Integra Bank Corp,Evansville'
p4289
asS'9/12/2006'
p4290
(lp4291
S'Vernon Bank Corp'
p4292
ag3695
asS'10/21/2002'
p4293
(lp4294
S'1st Constitution Bancorp'
p4295
aS'Greater Community Bancorp'
p4296
asS'3/31/2003'
p4297
(lp4298
S'CSB Financial Corp,Teaneck,NJ'
p4299
ag712
asS'3/31/2006'
p4300
(lp4301
S'Bay Net Financial Inc'
p4302
ag194
asS'3/31/2004'
p4303
(lp4304
S'United Nebraska Finl Co,NE'
p4305
aS'TierOne Corp,Lincoln,Nebraska'
p4306
asS'10/7/2015'
p4307
(lp4308
S'Cornerstone Bancorp Inc,FL'
p4309
aS'Republic Bancorp Inc'
p4310
asS'3/12/2006'
p4311
(lp4312
S'North Fork Bancorp,Melville,NY'
p4313
ag127
asS'7/26/2011'
p4314
(lp4315
S'Elgin State Bancorp Inc,IL'
p4316
ag858
asS'6/28/1988'
p4317
(lp4318
S'Somerset Bancorp,Somerville,NJ'
p4319
ag2871
asS'8/4/2015'
p4320
(lp4321
S'Pascack Bancorp Inc'
p4322
ag712
asS'8/4/2014'
p4323
(lp4324
S'NB&T Financial Group Inc'
p4325
ag3012
asS'8/23/1989'
p4326
(lp4327
S'Baltimore Trust Co'
p4328
ag1147
asS'3/10/2003'
p4329
(lp4330
S'Maxim Financial Holdings Inc'
p4331
ag1807
asS'12/28/1994'
p4332
(lp4333
S'Sugarland Bancshares Inc'
p4334
aS'MidSouth Bancorp Inc,LA'
p4335
asS'12/28/1992'
p4336
(lp4337
g193
ag256
asS'11/24/2003'
p4338
(lp4339
S'Sylvester Banking Co,GA'
p4340
aS'Southwest Georgia Financial,GA'
p4341
asS'11/24/2000'
p4342
(lp4343
g553
ag151
asS'7/3/1985'
p4344
(lp4345
S'Bankers Trust South Carolina'
p4346
ag179
asS'3/10/2008'
p4347
(lp4348
S'River City Bank,VA'
p4349
aS'Village Bk & Tr Finl Corp'
p4350
asS'2/28/2005'
p4351
(lp4352
S'First Bancshares Inc,CA'
p4353
aS'Pacific Capital Bancorp,CA'
p4354
asS'12/28/1998'
p4355
(lp4356
S'Seaport Citizens Bank,Idaho'
p4357
aS'First Washington Bancorp Inc'
p4358
asS'12/28/1999'
p4359
(lp4360
S'Piedmont Bancorp Inc'
p4361
aS'National Commerce Bancorp'
p4362
asS'7/14/2014'
p4363
(lp4364
S'Private Bancorp Inc'
p4365
aS'Alerus Financial Corp'
p4366
asS'9/21/1992'
p4367
(lp4368
S'First Gibraltar Bk-Most Assets'
p4369
ag2397
asS'9/21/1993'
p4370
(lp4371
S'BankWorcester,Worcester,MA'
p4372
ag754
asS'2/25/1985'
p4373
(lp4374
S'Citizens Bk & Tr,Glastonbury'
p4375
aS'CBT Corp,Hartford,CT'
p4376
asS'8/16/1985'
p4377
(lp4378
S'Bank of Middlesex, Urbana,VA'
p4379
ag32
asS'7/12/1996'
p4380
(lp4381
S'Crown Park Bancshares,Texas'
p4382
aS'Independent Bankshares Inc'
p4383
asS'7/12/1995'
p4384
(lp4385
S'First Chicago Corp,Illinois'
p4386
ag466
asS'3/17/2004'
p4387
(lp4388
S'Florida Banks Inc,FL'
p4389
ag1797
asS'7/28/2014'
p4390
(lp4391
S'Founders Financial Corp'
p4392
ag1083
asS'7/28/2011'
p4393
(lp4394
S'Peoples State Bank of Commerce'
p4395
aS'Tennessee Commerce Bancorp Inc'
p4396
asS'1/2/1998'
p4397
(lp4398
S'Pee Dee State Bank,SC'
p4399
ag866
asS'8/30/1985'
p4400
(lp4401
S'FirstGulf Bancorp,Mobile,'
p4402
ag2524
asS'2/12/1996'
p4403
(lp4404
S'California Bancshares Inc'
p4405
ag2373
asS'2/12/1990'
p4406
(lp4407
S'First Essex Bancorp Inc,MA'
p4408
ag3699
asS'4/21/1993'
p4409
(lp4410
S'Commerce Banc Corp'
p4411
ag881
asS'5/17/1995'
p4412
(lp4413
S'West-Ark Bancshares Inc'
p4414
ag613
asS'6/3/2002'
p4415
(lp4416
S'Fortress Bancshares Inc,WI'
p4417
aS'Merchants,Mnfr Bancorp Inc,WI'
p4418
asS'6/3/2004'
p4419
(lp4420
S'Trust Bancorp,CA'
p4421
ag1443
asS'4/21/1995'
p4422
(lp4423
S'Valley Banc Services Corp'
p4424
aS'Merchants Bancorp,Aurora,IL'
p4425
asS'4/21/1994'
p4426
(lp4427
S'Brundidge Banking Co'
p4428
ag80
asS'6/3/2009'
p4429
(lp4430
S'Carolina Commerce Bk,Gastonia'
p4431
aS'Carolina Trust Bank'
p4432
asS'9/1/2010'
p4433
(lp4434
S'Maryland Bankcorp Inc'
p4435
ag2025
asS'2/13/2004'
p4436
(lp4437
S'Citizens Bank(Kentucky)Inc,'
p4438
ag1971
asS'2/13/2003'
p4439
(lp4440
S'Huntington Bancshares-Offices'
p4441
ag3383
asS'2/13/2001'
p4442
(lp4443
S'Commercial Bank of New York'
p4444
ag477
asS'7/1/2005'
p4445
(lp4446
S'First National Banc Inc,GA'
p4447
ag2554
asS'6/11/1986'
p4448
(lp4449
S'Guaranty Bank and Trust Co,'
p4450
aS'Riggs Natl Corp,Washington,DC'
p4451
asS'1/14/1997'
p4452
(lp4453
S'County Bank of Chesterfield,VA'
p4454
aS'Community Bankshares Inc,VA'
p4455
asS'1/14/1994'
p4456
(lp4457
S'Bank of Iredell,Statesville,'
p4458
ag1169
asS'2/23/1999'
p4459
(lp4460
S'Pierbank,South Kingstown,RI'
p4461
aS'Washington Trust Bancorp,RI'
p4462
asS'2/23/1998'
p4463
(lp4464
S'Magna Group Inc,St. Louis,MO'
p4465
ag292
asS'2/18/1987'
p4466
(lp4467
S'Community Banks, Middleton, WI'
p4468
aS'Valley Bancorp,Appleton,WI'
p4469
asS'8/8/1985'
p4470
(lp4471
S'Second National Bk,Saginaw,MI'
p4472
ag1286
asS'2/23/1993'
p4473
(lp4474
S'Massachusetts Co Inc'
p4475
ag2117
asS'8/22/2014'
p4476
(lp4477
S'Cmnty Bk of Broward,Weston,FL'
p4478
ag163
asS'2/23/1995'
p4479
(lp4480
S'Bank of Harrisburg,IL'
p4481
ag175
asS'2/23/1994'
p4482
(lp4483
S'Heritage Financial Corp'
p4484
ag288
asS'7/17/2002'
p4485
(lp4486
S'Citizens Financial Corp,OK'
p4487
aS'Local Financial Corp,OK'
p4488
asS'7/17/2007'
p4489
(lp4490
S'BankFirst NA-Stored Value'
p4491
ag2377
asS'10/27/1988'
p4492
(lp4493
S'St Francis St Bk,St Francis,WI'
p4494
aS'F&M Financial Services Corp'
p4495
asS'10/27/1989'
p4496
(lp4497
S'Danville Bancorp Inc'
p4498
ag214
asS'11/2/2011'
p4499
(lp4500
S'Anglo Irish Bank Corp-US Loan'
p4501
ag1362
asS'5/11/2015'
p4502
(lp4503
S'First Community Bank, Columbus'
p4504
ag379
asS'4/17/1986'
p4505
(lp4506
S'United Bank,Tacoma,Washington'
p4507
ag1228
asS'8/17/2005'
p4508
(lp4509
S'Town Bank,Westfield,NJ'
p4510
aS'Two River Comnty Bk,Middletown'
p4511
asS'10/23/1986'
p4512
(lp4513
S'USAmeribancs, Highland Park,'
p4514
ag466
asS'6/16/1988'
p4515
(lp4516
S'First Wyoming Bancorp,Wyoming'
p4517
ag2073
asS'2/5/2004'
p4518
(lp4519
S'Midwest Guaranty Bancorp,MI'
p4520
ag24
asS'11/19/1987'
p4521
(lp4522
S'Central Wisconsin Bankshares'
p4523
ag1205
asS'12/31/1994'
p4524
(lp4525
S'Hazelhurst Corp'
p4526
ag351
asS'12/31/1997'
p4527
(lp4528
S'Hub Financial Corp,Helena,MT'
p4529
ag139
asS'11/12/1986'
p4530
(lp4531
S'RHNB Corp,Rock Hill, SC'
p4532
ag179
asS'12/17/1991'
p4533
(lp4534
S'Peoples Bank,Front Royal,VA'
p4535
ag2597
asS'12/17/1993'
p4536
(lp4537
S'VSB Bancorp Inc'
p4538
ag2140
asS'8/26/2004'
p4539
(lp4540
S'Liberty National Bancshares,GA'
p4541
ag1840
asS'4/20/1998'
p4542
(lp4543
S'Virginia Heartland Bank'
p4544
aS'Virginia Commonwealth Finl'
p4545
asS'4/20/1999'
p4546
(lp4547
S'Farmers & Merchants Bank,GA'
p4548
ag658
asS'5/4/1994'
p4549
(lp4550
S'Goreville Bancorp'
p4551
ag68
asS'5/4/1995'
p4552
(lp4553
S'Village Bank,Chapel Hill,NC'
p4554
ag716
asS'5/4/1993'
p4555
(lp4556
S'Spring National Bank'
p4557
ag147
asS'12/15/2014'
p4558
(lp4559
S'LNB Bancorp Inc'
p4560
ag1989
asS'4/20/1992'
p4561
(lp4562
S'First Bank/Las Colinas,Texas'
p4563
aS'BancTEXAS Group Inc'
p4564
asS'4/20/1994'
p4565
(lp4566
S'Oklahoma Savings Inc'
p4567
ag405
asS'4/20/1995'
p4568
(lp4569
S'Peoples Bank & Tr(Midway Corp)'
p4570
ag862
asS'5/4/1998'
p4571
(lp4572
S'Merchants Capital Corp'
p4573
ag4060
asS'7/2/1996'
p4574
(lp4575
S'Hastings Financial Corp'
p4576
ag304
asS'7/2/1993'
p4577
(lp4578
S'Tristate Bancorp,Cincinnati,OH'
p4579
ag1656
asS'11/1/2002'
p4580
(lp4581
S'CoVest Bancshares Inc,IL'
p4582
aS'Midwest Banc Holdings Inc'
p4583
asS'11/1/2000'
p4584
(lp4585
S'Imperial Bancorp,Inglewood,CA'
p4586
ag367
asS'11/1/2006'
p4587
(lp4588
S'Business Bank Corp'
p4589
ag92
asS'11/1/2005'
p4590
(lp4591
S'Mercantile Financial Corp,OH'
p4592
aS'Peoples Comnty Bancorp Inc,OH'
p4593
asS'12/8/1989'
p4594
(lp4595
S'Bank First NA,McLean,Virginia'
p4596
ag206
asS'11/1/2008'
p4597
(lp4598
S'Freedom Bank-Assets'
p4599
ag1656
asS'3/24/2014'
p4600
(lp4601
S'Delta Trust & Banking Corp'
p4602
ag3163
asS'4/1/2002'
p4603
(lp4604
S'Central California Bank'
p4605
ag939
asS'7/22/1994'
p4606
(lp4607
S'First State Bank,Wilmington,DE'
p4608
ag256
asS'12/27/2005'
p4609
(lp4610
S'F&M Holding Co'
p4611
ag268
asS'12/27/2000'
p4612
(lp4613
S'Drovers Bancshares Corp'
p4614
ag214
asS'7/6/1998'
p4615
(lp4616
S'Commercial National Bank,AL'
p4617
aS'South Alabama Bancorp,AL'
p4618
asS'7/6/1992'
p4619
(lp4620
S'Oakland Commerce Bank,MI'
p4621
ag1355
asS'6/24/1993'
p4622
(lp4623
S'Cleveland Bank & Trust Co'
p4624
ag32
asS'6/24/1996'
p4625
(lp4626
g2368
ag100
asS'6/24/1997'
p4627
(lp4628
S'Heritage Bancorp,Montana'
p4629
aS'United Financial Corp,MT'
p4630
asS'6/24/1994'
p4631
(lp4632
S'Twin City Corp'
p4633
ag2357
asS'12/1/2006'
p4634
(lp4635
S'Bank of Weatherford'
p4636
aS'Columbia Financial Corp'
p4637
asS'12/1/2003'
p4638
(lp4639
S'First Carolina State Bk,NC'
p4640
ag1355
asS'11/4/1998'
p4641
(lp4642
S'Homebanc Corp,Guntersville,AL'
p4643
ag4060
asS'11/4/1996'
p4644
(lp4645
S'United Carolina Bancshares'
p4646
ag1135
asS'11/4/1997'
p4647
(lp4648
S'St Mary Holding Corp'
p4649
ag4
asS'11/4/1994'
p4650
(lp4651
S'STABA Bancshares Inc'
p4652
ag335
asS'6/17/1986'
p4653
(lp4654
S'First NE Bankshares, MA'
p4655
aS'Hartford National Corp, CT'
p4656
asS'6/17/1985'
p4657
(lp4658
S'First Atlanta Corp,Atlanta,GA'
p4659
ag16
asS'4/17/2014'
p4660
(lp4661
S'Florida Traditions Bank'
p4662
ag1221
asS'11/13/2013'
p4663
(lp4664
S'SCB Bancorp Inc'
p4665
ag3741
asS'9/16/1996'
p4666
(lp4667
S'Citizens Bancorp,Laurel,MD'
p4668
ag1065
asS'4/13/1989'
p4669
(lp4670
S'ABT Bancshares Corp'
p4671
ag613
asS'10/14/1996'
p4672
(lp4673
S'Independence Bancorp Inc,NJ'
p4674
ag1177
asS'2/22/2001'
p4675
(lp4676
S'American Bancorporation Inc,WV'
p4677
ag151
asS'10/14/1994'
p4678
(lp4679
S'United Citizens Bk,Alchua,Fl'
p4680
aS'Southeastern Banking Corp'
p4681
asS'10/14/1993'
p4682
(lp4683
S'Candlewood Bank & Trust Co'
p4684
aS'New Milford Bank & Trust Co'
p4685
asS'10/14/1992'
p4686
(lp4687
S'Charter Oak Financial Corp'
p4688
ag881
asS'2/22/2005'
p4689
(lp4690
S'Somonauk FSB Bancorp Inc,IL'
p4691
aS'Princeton National Bancorp,IL'
p4692
asS'8/9/1999'
p4693
(lp4694
S'Union Bankshares Ltd,Denver,CO'
p4695
ag847
asS'8/9/1993'
p4696
(lp4697
S'San Diego Financial Corp'
p4698
ag1627
asS'7/25/1989'
p4699
(lp4700
S'Chesapeake Bank Corp'
p4701
ag2597
asS'7/25/1988'
p4702
(lp4703
S'Indian Head Banks Inc, Nashua'
p4704
aS'Fleet/Norstar Financial Grp,RI'
p4705
asS'2/24/1987'
p4706
(lp4707
S'Rainier Bancorporation,WA'
p4708
ag119
asS'7/19/1996'
p4709
(lp4710
S'South Valley Bancorporation,CA'
p4711
ag4354
asS'7/19/1995'
p4712
(lp4713
S'Premier Bancorp,Baton Rouge,LA'
p4714
ag202
asS'9/19/2005'
p4715
(lp4716
S'TexasBanc Holding Co,TX'
p4717
ag504
asS'5/8/2001'
p4718
(lp4719
S'Post Bancorp Inc'
p4720
aS'Team Financial Inc'
p4721
asS'9/19/2000'
p4722
(lp4723
S'Friendship Community Bank,FL'
p4724
aS'PAB Bankshares Inc'
p4725
asS'12/9/2010'
p4726
(lp4727
S'Center Financial Corp,LA,CA'
p4728
ag2188
asS'12/9/2011'
p4729
(lp4730
S'East Texas Financial Services'
p4731
ag36
asS'3/22/1996'
p4732
(lp4733
S'King George State Bank,VA'
p4734
aS'Union Bankshares Ltd,Denver,CO'
p4735
asS'9/19/2008'
p4736
(lp4737
S'Amer Home Bk,Mountville,PA'
p4738
aS'First Chester County Corp,PA'
p4739
asS'4/29/1998'
p4740
(lp4741
S'Tri-County Bancshares Inc,KS'
p4742
ag847
asS'1/31/1991'
p4743
(lp4744
S'Plaza National Bank,Dallas,TX'
p4745
ag147
asS'4/29/1991'
p4746
(lp4747
S'1st Heritage Bank,Illinois'
p4748
ag3393
asS'4/29/1997'
p4749
(lp4750
S'SC Bancorp,Anaheim,California'
p4751
aS'Western Bancorp,California'
p4752
asS'4/29/1996'
p4753
(lp4754
S'TAC Bancshares,Miami Florida'
p4755
ag1121
asS'4/29/1994'
p4756
(lp4757
S'White County Bancshares Inc'
p4758
ag1840
asS'4/11/1990'
p4759
(lp4760
S'Citizens State Bank,Kiel,WI'
p4761
ag4469
asS'4/11/1994'
p4762
(lp4763
S'Atlanfed Bancorp Inc'
p4764
ag1739
asS'4/11/1995'
p4765
(lp4766
S'First Natl Bk of Paoli,Indiana'
p4767
ag970
asS'2/27/1996'
p4768
(lp4769
S'ANB Financial Corp'
p4770
ag1678
asS'10/4/1999'
p4771
(lp4772
S'Six Rivers National Bank,CA'
p4773
aS'North Valley Bancorp'
p4774
asS'10/3/1996'
p4775
(lp4776
S'Country Bank Shares Corp,WI'
p4777
ag40
asS'3/14/1994'
p4778
(lp4779
S'Cornerstone Bank Group Inc'
p4780
ag1298
asS'3/14/1995'
p4781
(lp4782
S'First Merchants Bancorp,WV'
p4783
ag2678
asS'7/16/1998'
p4784
(lp4785
S'Southwest National Corp,PA'
p4786
ag379
asS'3/14/1997'
p4787
(lp4788
S'Security Capital,Milwaukee,WI'
p4789
ag1205
asS'3/14/1990'
p4790
(lp4791
S'Farmers Bank and Trust Co'
p4792
ag175
asS'9/4/2002'
p4793
(lp4794
S'MetroBanCorp,Indianapolis,IN'
p4795
ag4285
asS'7/16/1993'
p4796
(lp4797
S'Great Southern Bancorp Inc'
p4798
ag405
asS'4/16/2001'
p4799
(lp4800
S'Wachovia Corp,Winston-Salem,NC'
p4801
ag56
asS'7/16/1997'
p4802
(lp4803
S'ArgentBank,Thibodaux,Louisiana'
p4804
ag335
asS'8/14/2009'
p4805
(lp4806
S'Colonial BancGroup Inc-Bkg'
p4807
ag481
asS'11/30/1998'
p4808
(lp4809
S'Chase Bank of TX-Beaumont Op'
p4810
ag335
asS'9/12/2013'
p4811
(lp4812
S'Metropolitan National Bank,AR'
p4813
ag3163
asS'10/16/2003'
p4814
(lp4815
S'Pacific Crest Capital Inc'
p4816
ag4354
asS'11/30/1992'
p4817
(lp4818
S'Centennial Savings Bank FSB'
p4819
aS'Aspen Bancshares Inc,Aspen,CO'
p4820
asS'11/30/1994'
p4821
(lp4822
S'Bellbrook Bancorp Inc'
p4823
aS'BancFirst Ohio Corp,OH'
p4824
asS'4/5/2006'
p4825
(lp4826
S'Community Capital Bank,NY'
p4827
aS'Carver Bancorp Inc,NY,NY'
p4828
asS'7/26/2000'
p4829
(lp4830
S'TALBOT BANCSHARES INC'
p4831
ag64
asS'1/27/2004'
p4832
(lp4833
S'Unizan Financial Corp,OH'
p4834
ag881
asS'7/26/2007'
p4835
(lp4836
S'FNB Corp,Christianburg,VA'
p4837
aS'Virginia Finl Grp,Culpeper,VA'
p4838
asS'7/26/2005'
p4839
(lp4840
S'Columbia Bancorp Inc'
p4841
ag214
asS'7/31/1991'
p4842
(lp4843
S'Valley Capital Corp,Las Vegas'
p4844
ag2397
asS'12/28/1987'
p4845
(lp4846
g3638
ag3064
asS'7/31/1992'
p4847
(lp4848
S'Peoples National Bk,Liberal,KS'
p4849
ag405
asS'7/31/1995'
p4850
(lp4851
S'Bank of Robstown'
p4852
ag1165
asS'7/31/1997'
p4853
(lp4854
S'Santa Monica Bank'
p4855
ag4752
asS'2/28/2012'
p4856
(lp4857
S'Premier Service Bank,Riverside'
p4858
aS'First CA Finl Grp Inc'
p4859
asS'7/31/1998'
p4860
(lp4861
S'Valley Bancorp,Sumner,WA'
p4862
ag1581
asS'4/7/1998'
p4863
(lp4864
S'Enfin Inc,Solon,Ohio'
p4865
ag518
asS'4/7/1992'
p4866
(lp4867
S'First Commercial Bancshares'
p4868
ag1347
asS'5/28/1999'
p4869
(lp4870
S'Black Diamond Savings Bank'
p4871
aS'FNB Financial Services Corp,NC'
p4872
asS'5/28/1998'
p4873
(lp4874
S'Pioneer Bancshares Inc,TN'
p4875
ag687
asS'9/1/2005'
p4876
(lp4877
S'Texas Community Bancshares,TX'
p4878
ag736
asS'5/28/1997'
p4879
(lp4880
S'Unicorp Bancshares-Texas,TX'
p4881
ag335
asS'11/5/2014'
p4882
(lp4883
S'Montana Cmnty Bks,Ronan,MT'
p4884
ag139
asS'12/4/2006'
p4885
(lp4886
S'United Heritage Bankshares'
p4887
ag595
asS'12/4/2000'
p4888
(lp4889
S'Tri-County Bank,Trenton,FL'
p4890
ag2554
asS'12/4/2001'
p4891
(lp4892
S'Century Bancshares Inc'
p4893
ag595
asS'11/22/1993'
p4894
(lp4895
S'Lake Shore Bancorp Inc'
p4896
ag591
asS'11/22/1995'
p4897
(lp4898
S'FB&T Financial Corp'
p4899
ag1004
asS'11/22/1994'
p4900
(lp4901
S'First Denver Corp'
p4902
ag1012
asS'2/19/2015'
p4903
(lp4904
S'Peoples Bancorp,Auburn,Indiana'
p4905
ag3741
asS'4/21/1988'
p4906
(lp4907
S'C&P Bank Corp,Pensacola,FL'
p4908
ag2221
asS'10/26/1992'
p4909
(lp4910
S'Financial Concepts Bancorp'
p4911
ag1165
asS'10/26/1993'
p4912
(lp4913
S'Suburban Bancshares Inc'
p4914
ag1016
asS'6/12/2013'
p4915
(lp4916
S'Morrill Bancshares Inc'
p4917
ag1250
asS'8/28/2006'
p4918
(lp4919
S'Landmark Financial Corp,'
p4920
aS'First Internet Bancorp'
p4921
asS'8/8/1994'
p4922
(lp4923
S'NBM Bancorp Inc,Ohio'
p4924
ag40
asS'5/1/1992'
p4925
(lp4926
S'Napa Valley Bancorp'
p4927
aS'Westamerica Bancorp,California'
p4928
asS'12/24/2004'
p4929
(lp4930
S'New York National Bank,NY'
p4931
aS'Hudson Valley Holding Corp,NY'
p4932
asS'12/24/2003'
p4933
(lp4934
S'BSB Bancorp Inc,Binghamton,NY'
p4935
ag3737
asS'10/27/1995'
p4936
(lp4937
S'Henrietta Bancshares'
p4938
ag1165
asS'10/27/1997'
p4939
(lp4940
S'Regency Financial Shares,VA'
p4941
aS'MainStreet BankGroup Inc,VA'
p4942
asS'9/22/2010'
p4943
(lp4944
S'Cadence Financial Corp'
p4945
ag1528
asS'10/27/1993'
p4946
(lp4947
S'First National Bk,Madison,Ill'
p4948
ag68
asS'10/27/1998'
p4949
(lp4950
S'Sweet Water Bancshares Inc'
p4951
ag4618
asS'3/23/1992'
p4952
(lp4953
S'Team Bancshares Inc'
p4954
ag202
asS'3/23/1990'
p4955
(lp4956
S'Eastchester Financial Corp'
p4957
ag477
asS'10/22/1998'
p4958
(lp4959
S'South Florida Bank Hldg Corp'
p4960
ag1656
asS'3/23/1995'
p4961
(lp4962
S'GN Bancorp'
p4963
ag1890
asS'10/22/1997'
p4964
(lp4965
S'Green Country Bank,Miami,OK'
p4966
ag4488
asS'9/15/1989'
p4967
(lp4968
S'Flat Top Bankshares Inc'
p4969
aS'First Community Bancshares,WV'
p4970
asS'10/22/1993'
p4971
(lp4972
S'PNB Bankshares Inc'
p4973
ag1347
asS'5/11/2007'
p4974
(lp4975
S'Pocono Cmnty Bk,Stroudsburg,PA'
p4976
aS'First Keystone Corp'
p4977
asS'8/17/2012'
p4978
(lp4979
S'Western Liberty Bancorp,NV'
p4980
ag3864
asS'5/29/1998'
p4981
(lp4982
S'Wayne Bancorp Inc,Wayne,NJ'
p4983
ag371
asS'8/17/2015'
p4984
(lp4985
S'National Penn Bancshares,PA'
p4986
ag481
asS'5/29/1997'
p4987
(lp4988
S'Sabina Bank,Sabina,Ohio'
p4989
ag470
asS'10/23/1990'
p4990
(lp4991
S'Landmark Bancshares Corp'
p4992
ag68
asS'5/16/1989'
p4993
(lp4994
S'Commercial National Corp'
p4995
ag2206
asS'5/16/1988'
p4996
(lp4997
S'Point West Bancorp,Sacramento'
p4998
ag1627
asS'10/23/1995'
p4999
(lp5000
S'First National Bancorp,Georgia'
p5001
ag4
asS'11/11/1998'
p5002
(lp5003
S'Bancwest Finl Corp,WA'
p5004
ag252
asS'10/8/1993'
p5005
(lp5006
S'Liberty Bank,Honolulu,Hawaii'
p5007
ag2397
asS'10/8/1992'
p5008
(lp5009
S'First American State Bk,WA'
p5010
ag1928
asS'11/1/1991'
p5011
(lp5012
S'First Geneva Banqueshares Inc'
p5013
ag218
asS'7/24/1998'
p5014
(lp5015
S'Peninsula Bank of San Diego,CA'
p5016
ag4752
asS'3/24/2015'
p5017
(lp5018
S'Pinnacle Bk of S Carolina'
p5019
aS'Carolina Alliance Bank'
p5020
asS'5/22/1992'
p5021
(lp5022
S'Mission Hills Bancshares Inc'
p5023
ag405
asS'2/6/1992'
p5024
(lp5025
g217
ag202
asS'12/31/1986'
p5026
(lp5027
S'Beneficial National Bank'
p5028
ag591
asS'12/31/1985'
p5029
(lp5030
S'Continental Bancor, Scottsdale'
p5031
aS'Chase Manhattan Corp'
p5032
asS'12/17/1986'
p5033
(lp5034
S'Old Natl Bancorp, Spokane, WA'
p5035
ag2373
asS'12/15/2000'
p5036
(lp5037
S'Peoples & Union Bk,Lewisburg'
p5038
aS'First Farmers & Merchants Corp'
p5039
asS'12/15/2005'
p5040
(lp5041
S'Main Street Banks Inc,GA'
p5042
ag481
asS'12/15/2004'
p5043
(lp5044
S'Citizens Bank Hldg Co,ID'
p5045
ag139
asS'7/2/1984'
p5046
(lp5047
S'Trust Co of Georgia,Atlanta'
p5048
aS'Sun Banks Inc,Orlando,Florida'
p5049
asS'10/31/1991'
p5050
(lp5051
S'Indiana Bancshares Inc'
p5052
ag2404
asS'9/1/1986'
p5053
(lp5054
S'First Mississippi Natl Corp'
p5055
aS'Bancorp of Mississippi,Tupelo'
p5056
asS'3/24/2000'
p5057
(lp5058
S'Los Robles Bancorp,California'
p5059
ag4354
asS'1/16/1987'
p5060
(lp5061
S'Eastville Bank, Eastville, VA'
p5062
ag1147
asS'10/5/2006'
p5063
(lp5064
S'Signature Financial Holdings'
p5065
ag455
asS'10/5/2001'
p5066
(lp5067
S'Ocean National Corp,Maine'
p5068
ag770
asS'2/20/1987'
p5069
(lp5070
S'Suncook Bank,Suncook,NH'
p5071
aS'Bank of New Hampshire Corp'
p5072
asS'1/7/2008'
p5073
(lp5074
S'KLT Bancshares Inc'
p5075
aS'Liberty Bancorp Inc'
p5076
asS'2/4/2005'
p5077
(lp5078
S'First Alachua Bkg Corp,FL'
p5079
ag2516
asS'2/4/2000'
p5080
(lp5081
S'1st Choice Financial Corp'
p5082
ag1362
asS'2/25/1999'
p5083
(lp5084
S'Matewan Bancshares Inc'
p5085
ag481
asS'9/10/2013'
p5086
(lp5087
S'Tower Financial Corporation'
p5088
ag1083
asS'4/22/2015'
p5089
(lp5090
S'Palmetto Bancshares Inc'
p5091
ag1840
asS'7/6/1988'
p5092
(lp5093
S'GuarantyShares of WV'
p5094
aS'National Banc of Commerce Co'
p5095
asS'6/19/1998'
p5096
(lp5097
S'Republic Bank of Torrance,CA'
p5098
ag2029
asS'1/23/1986'
p5099
(lp5100
S'Spartan Bankcorp,E Lansing,MI'
p5101
ag202
asS'1/23/1985'
p5102
(lp5103
S'Guaranty Bancshares Inc'
p5104
aS'Louisiana Bancshares Inc'
p5105
asS'1/23/1989'
p5106
(lp5107
S'Midwest Financial Group Inc'
p5108
ag409
asS'12/5/1995'
p5109
(lp5110
S'American City Bancorp'
p5111
ag4
asS'12/30/1988'
p5112
(lp5113
S'Lincoln Trust Co'
p5114
aS'Quincy Savings Bank,Quincy,MA'
p5115
asS'3/30/1993'
p5116
(lp5117
S'Commonwealth Bancshares Corp'
p5118
ag2015
asS'6/9/1994'
p5119
(lp5120
S'Dickenson Buchanan Bank'
p5121
aS'Premier Bankshs,Bluefield,VA'
p5122
asS'3/28/1996'
p5123
(lp5124
S'Auburn Bancorp,Auburn,CA'
p5125
ag2369
asS'3/28/1995'
p5126
(lp5127
S'Corporate Bank'
p5128
ag2601
asS'6/9/1997'
p5129
(lp5130
S'Peoples Bank, Catawba, NC'
p5131
aS'Carolina First Bancshares,NC'
p5132
asS'5/18/1989'
p5133
(lp5134
S'Northern Bk,Northern Natl Bk'
p5135
ag119
asS'2/5/1998'
p5136
(lp5137
S'Button Gwinnett Financial'
p5138
ag658
asS'10/15/2009'
p5139
(lp5140
S'Citizens First Corp'
p5141
ag3763
asS'10/15/2003'
p5142
(lp5143
S'Millennium Bank,Malvern,PA'
p5144
ag485
asS'7/25/1991'
p5145
(lp5146
S'First Natl Bank of N Idaho'
p5147
ag1753
asS'10/15/2001'
p5148
(lp5149
S'Lafayette Bancorp,Lafayette,IN'
p5150
ag580
asS'7/25/1994'
p5151
(lp5152
S'PV Financial'
p5153
ag1902
asS'7/25/1995'
p5154
(lp5155
S'First Sterling Bancorp Inc'
p5156
ag984
asS'7/25/1996'
p5157
(lp5158
g1853
aS'Bank of Granite Corp'
p5159
asS'10/15/2004'
p5160
(lp5161
S'NSD Bancorp Inc,Pittsburgh.PA'
p5162
ag111
asS'4/13/1998'
p5163
(lp5164
S'First Chicago NBD Corp'
p5165
ag202
asS'2/22/2011'
p5166
(lp5167
S'OMNI Bancshares Inc'
p5168
ag609
asS'4/13/1990'
p5169
(lp5170
S'Empire Bancorp'
p5171
ag2447
asS'12/27/1999'
p5172
(lp5173
S'Sierra National,Tehachapi,CA'
p5174
aS'Bank of the Sierra,California'
p5175
asS'2/24/1992'
p5176
(lp5177
S'Merchants Nat Bk&Tr,Union Natl'
p5178
aS'ONBANCorp Inc,Syracuse,NY'
p5179
asS'7/19/1985'
p5180
(lp5181
S'Sylvania BanCorp,Sylvania,OH'
p5182
aS'Toledo Trustcorp Inc'
p5183
asS'2/5/1991'
p5184
(lp5185
S'Promenade Bancshares Inc'
p5186
ag147
asS'2/25/1994'
p5187
(lp5188
S'Libsab Bancorp Inc'
p5189
aS'Peoples First Corp'
p5190
asS'11/18/2003'
p5191
(lp5192
S'Canaan Natl Bancorp Inc,CT'
p5193
ag3669
asS'11/18/2002'
p5194
(lp5195
S'Bridge View Bancorp,NJ'
p5196
ag210
asS'7/27/2009'
p5197
(lp5198
S'Harleysville National Corp,PA'
p5199
ag222
asS'3/15/1993'
p5200
(lp5201
S'Harvest Bancorp Inc'
p5202
ag1004
asS'4/29/1986'
p5203
(lp5204
S'Pennsylvania Natl Financial'
p5205
ag1008
asS'7/27/2005'
p5206
(lp5207
S'First Natl Bancshares Inc,FL'
p5208
ag455
asS'7/27/2007'
p5209
(lp5210
S'USB Holding Co Inc,Orangeburg'
p5211
ag1861
asS'7/27/2006'
p5212
(lp5213
S'Fidelity Bankshares Inc,FL'
p5214
ag1201
asS'6/27/2012'
p5215
(lp5216
S'Community National Bk,Bellaire'
p5217
ag819
asS'6/27/2011'
p5218
(lp5219
S'Santa Lucia Bancorp'
p5220
aS'Mission Community Bancorp'
p5221
asS'3/28/2007'
p5222
(lp5223
S'Town Ctr Bancorp,Portland,OR'
p5224
ag1928
asS'2/5/1997'
p5225
(lp5226
S'First Central Corp,Searcy,AR'
p5227
ag613
asS'2/2/1993'
p5228
(lp5229
S'Huntley Bancshares Inc'
p5230
aS'Suburban Bancorp,Palatine,IL'
p5231
asS'5/19/2005'
p5232
(lp5233
S'Bank of Commerce,Henderson,NV'
p5234
ag728
asS'10/6/1998'
p5235
(lp5236
S'Mt Vernon Bancshares Inc,KY'
p5237
ag470
asS'6/8/1998'
p5238
(lp5239
S'Wells Fargo & Co'
p5240
ag1165
asS'6/8/1993'
p5241
(lp5242
S'Texas Commerce-Longview,1 Oth'
p5243
ag613
asS'6/8/1992'
p5244
(lp5245
S'First National Bk,Rockport,TX'
p5246
aS'Victoria Bankshares Inc'
p5247
asS'2/21/2001'
p5248
(lp5249
S'Golden Isles Financial Hldgs'
p5250
ag2554
asS'1/27/2014'
p5251
(lp5252
S'VantageSouth Bancshares Inc'
p5253
aS'Yadkin Financial Corp'
p5254
asS'1/27/2015'
p5255
(lp5256
S'National Bancshares Corp'
p5257
ag3823
asS'2/2/1998'
p5258
(lp5259
S'Seminole Bank,Seminole,FL'
p5260
ag1023
asS'1/4/2002'
p5261
(lp5262
g873
ag3012
asS'7/30/2003'
p5263
(lp5264
S'Community Bk,Pilot Mtn,NC'
p5265
aS'Southern Community Finan Corp'
p5266
asS'10/18/1984'
p5267
(lp5268
S'Rapides Bk&Tr,Alexandria,LA'
p5269
ag52
asS'2/16/1994'
p5270
(lp5271
S'Lincoln Bank South'
p5272
aS'First Commerce Bancshares Inc'
p5273
asS'12/5/2005'
p5274
(lp5275
S'Hinsbrook Bancshares Inc,IL'
p5276
ag639
asS'9/14/2011'
p5277
(lp5278
S'Stellar Business Bank'
p5279
aS'AltaPacific Bancorp'
p5280
asS'7/31/1987'
p5281
(lp5282
S'Ypsilanti Savings Bank,MI'
p5283
ag3064
asS'5/26/2010'
p5284
(lp5285
S'Central Jersey Bancorp,NJ'
p5286
aS'Kearny Financial Corp'
p5287
asS'11/20/1998'
p5288
(lp5289
S'La Place Bancshares Inc,LA'
p5290
ag292
asS'8/30/1993'
p5291
(lp5292
S'First Citizens United Inc'
p5293
ag175
asS'3/15/2000'
p5294
(lp5295
S'First Counties Bank,Clearlake'
p5296
ag1902
asS'11/20/1990'
p5297
(lp5298
S'Valley Bank Hldg,Security,CO'
p5299
ag296
asS'12/20/2011'
p5300
(lp5301
S'Peoples Bancorp Inc,Easley,SC'
p5302
ag2384
asS'11/20/1995'
p5303
(lp5304
S'Du Quoin Bancorp Inc'
p5305
ag2404
asS'3/15/2005'
p5306
(lp5307
S'West Metro Fin Svcs Inc'
p5308
aS'First Horizon National Corp,TN'
p5309
asS'11/20/1997'
p5310
(lp5311
S'Marshall National Bk & Tr,VA'
p5312
ag1147
asS'11/20/1996'
p5313
(lp5314
S'Aspen Bancshares Inc,Aspen,CO'
p5315
ag390
asS'5/12/1998'
p5316
(lp5317
S'First National Bank of Pickens'
p5318
ag1463
asS'6/30/2015'
p5319
(lp5320
S'First Natl Bk,Fredericksburg'
p5321
aS'Citizens Finl Svcs Inc'
p5322
asS'12/12/1984'
p5323
(lp5324
S'First Bank of Grantsburg,WI'
p5325
aS'First Wisconsin Corp'
p5326
asS'7/2/1987'
p5327
(lp5328
S'Bank of Bellevue,Nashville,TN'
p5329
ag56
asS'8/10/1993'
p5330
(lp5331
S'Citizens National Corp'
p5332
ag2524
asS'5/12/1994'
p5333
(lp5334
S'Citizens Holdings Corp'
p5335
ag743
asS'5/12/1995'
p5336
(lp5337
S'El Capitan Bancshares Inc'
p5338
ag2369
asS'8/20/1985'
p5339
(lp5340
S'Arizona Bancwest Corp,Phoenix'
p5341
ag308
asS'5/12/1997'
p5342
(lp5343
S'Indian Rocks State Bank'
p5344
ag1023
asS'3/30/2009'
p5345
(lp5346
S'First Market Bank,Richmond'
p5347
ag3721
asS'12/7/2015'
p5348
(lp5349
S'Wilshire Bancorp Inc'
p5350
ag1366
asS'5/7/1986'
p5351
(lp5352
S'American Fletcher,Indianapolis'
p5353
ag202
asS'6/14/1994'
p5354
(lp5355
S'F&C Bancshares Inc'
p5356
ag409
asS'6/14/1996'
p5357
(lp5358
S'Allied Bankshares Inc,GA'
p5359
ag4
asS'12/14/2001'
p5360
(lp5361
S'Brookhollow Bancshares,Dallas'
p5362
ag4
asS'12/14/2006'
p5363
(lp5364
S'CN Bancorp Inc'
p5365
ag2202
asS'5/9/2000'
p5366
(lp5367
S'Western Holdings Bancorp'
p5368
ag3665
asS'5/9/2001'
p5369
(lp5370
S'California Center Bank,CA'
p5371
ag1382
asS'7/1/2013'
p5372
(lp5373
S'NorCal Community Bancorp'
p5374
aS'Bank of Marin Bancorp'
p5375
asS'7/14/1989'
p5376
(lp5377
g686
ag1814
asS'3/25/1993'
p5378
(lp5379
S'Trans Kentucky Bancorp'
p5380
aS'Trans Finl,Bowling Green,KY'
p5381
asS'7/22/2002'
p5382
(lp5383
S'Big Foot Financial Corp'
p5384
ag4583
asS'6/12/2001'
p5385
(lp5386
S'Belfast Hldg Co'
p5387
aS'First Pulaski Natl Corp'
p5388
asS'12/16/2003'
p5389
(lp5390
S'Trust Co of New Jersey,NJ'
p5391
ag477
asS'4/28/2014'
p5392
(lp5393
S'Bank Of Atlanta,Atlanta,GA'
p5394
ag2288
asS'4/28/2015'
p5395
(lp5396
S'Magna Bank'
p5397
ag500
asS'12/8/2014'
p5398
(lp5399
S'Georgia Commerce Bancshares'
p5400
ag609
asS'9/22/2000'
p5401
(lp5402
S'Bank of San Francisco,San Fran'
p5403
ag100
asS'4/28/2011'
p5404
(lp5405
S'State Bancorp Inc,NY'
p5406
ag371
asS'10/1/2000'
p5407
(lp5408
S'United National-Branches(2)'
p5409
aS'First West Virginia Bancorp'
p5410
asS'9/7/2001'
p5411
(lp5412
S'Nashoba Bancshares Inc'
p5413
ag1528
asS'9/7/2004'
p5414
(lp5415
S'Southwestern Bancshares Inc,TX'
p5416
ag12
asS'9/7/2005'
p5417
(lp5418
S'First Manhattan Bancorp Inc,KS'
p5419
aS'Landmark Bancorp Inc'
p5420
asS'10/2/1995'
p5421
(lp5422
S'Shawmut Bank-MA Branches(13)'
p5423
aS'Banknorth Group Inc,VT'
p5424
asS'9/7/2007'
p5425
(lp5426
S'KNBT Bancorp Inc,Bethlehem,PA'
p5427
aS'National Penn Bancshares,PA'
p5428
asS'2/20/1985'
p5429
(lp5430
S'Landmark Banking Corp of FL'
p5431
ag1875
asS'10/22/1986'
p5432
(lp5433
S'Madison Financial Corp,IL'
p5434
aS'Exchange International Corp'
p5435
asS'12/11/2006'
p5436
(lp5437
S'F&M Bank, Spokane, Washington'
p5438
ag2658
asS'12/11/2003'
p5439
(lp5440
S'Patriot Bank Corp,Pottstown,PA'
p5441
ag1739
asS'4/6/1987'
p5442
(lp5443
S'Central Natl BK, Buckhannon,WV'
p5444
ag2853
asS'12/11/2008'
p5445
(lp5446
S'Peoples Bk,GA-Br,Lithonia,GA'
p5447
aS'Citizens Bancshares Corp,GA'
p5448
asS'2/7/2008'
p5449
(lp5450
S'1st Choice Bancorp Inc,TX'
p5451
ag36
asS'11/22/2006'
p5452
(lp5453
S'Clayco Banc Corp'
p5454
ag654
asS'2/7/2000'
p5455
(lp5456
S'One Valley Bancorp Inc,WV'
p5457
ag481
asS'12/9/1999'
p5458
(lp5459
S'Tarpon Financial Corp'
p5460
aS'Community National Bancorp'
p5461
asS'2/11/2004'
p5462
(lp5463
S'Issaquah Bancshares,WA'
p5464
aS'Cascade Financial Corp'
p5465
asS'12/3/1987'
p5466
(lp5467
S'Northern of Tennessee Corp'
p5468
ag687
asS'10/8/1985'
p5469
(lp5470
S'Money Management Corp,Indiana'
p5471
ag202
asS'5/16/1995'
p5472
(lp5473
S'Central Corp,Monroe,Louisiana'
p5474
ag52
asS'6/21/2013'
p5475
(lp5476
S'Ozarks Legacy Community Finl'
p5477
ag2835
asS'9/20/1995'
p5478
(lp5479
S'City Bankshares,Oklahoma City'
p5480
ag3091
asS'9/20/1990'
p5481
(lp5482
S'NBSC Corp'
p5483
ag1135
asS'9/20/1993'
p5484
(lp5485
S'Valley Bancorp,Appleton,WI'
p5486
ag1205
asS'9/3/2008'
p5487
(lp5488
S'Lincoln Bancorp,IN'
p5489
ag580
asS'8/11/1987'
p5490
(lp5491
g5038
ag107
asS'10/20/1988'
p5492
(lp5493
S'Concorde Bank,Dallas,Texas'
p5494
ag351
asS'1/16/1991'
p5495
(lp5496
S'Central Trust-4 Ohio Branches'
p5497
ag202
asS'8/12/2004'
p5498
(lp5499
S'PHSB Financial Corp,PA'
p5500
aS'ESB Financial Corp'
p5501
asS'1/16/1995'
p5502
(lp5503
S'United Bancorp of Kentucky'
p5504
ag1201
asS'5/23/2008'
p5505
(lp5506
g4924
aS'Rurban Financial Corp'
p5507
asS'5/23/2007'
p5508
(lp5509
g2126
ag743
asS'5/23/2005'
p5510
(lp5511
S'Pacifica Bancorp Inc,Bellevue'
p5512
ag2171
asS'10/5/2015'
p5513
(lp5514
S'Cmnty Bk of S Florida Inc'
p5515
ag1428
asS'2/20/1997'
p5516
(lp5517
S'Great Southern Bancorp,Florida'
p5518
ag80
asS'2/20/1995'
p5519
(lp5520
S'Compass Bancshares Inc,AL'
p5521
ag56
asS'2/7/2013'
p5522
(lp5523
S'First M&F Corp,Kosciusko,MS'
p5524
ag3318
asS'1/7/2010'
p5525
(lp5526
S'Oak Financial Corp,MI'
p5527
ag1290
asS'10/12/1988'
p5528
(lp5529
S'New Palestine Bancorp'
p5530
ag1656
asS'9/16/2003'
p5531
(lp5532
S'Mid Valley Bank, Red Bluff,CA'
p5533
ag4236
asS'10/12/1987'
p5534
(lp5535
S'Lafayette Trust Bk,Easton,PA'
p5536
ag214
asS'9/10/2001'
p5537
(lp5538
S'Signal Financial Corp'
p5539
ag1890
asS'9/28/1999'
p5540
(lp5541
g4914
aS'Columbia Bancorp Inc'
p5542
asS'7/23/1993'
p5543
(lp5544
S'First Amarillo Bancorp Inc'
p5545
ag758
asS'9/28/1995'
p5546
(lp5547
S'First Natl Bk of Lockport,IL'
p5548
ag3393
asS'9/8/2004'
p5549
(lp5550
S'First Financial Bancorp,CA'
p5551
aS'Placer Sierra Bancshares,CA'
p5552
asS'12/30/1997'
p5553
(lp5554
S'Sterling West Bancorp,CA'
p5555
aS'Pacific Bank NA,CA'
p5556
asS'12/30/1996'
p5557
(lp5558
S'Liberty Bancorp Inc,Oklahoma'
p5559
ag202
asS'12/30/1993'
p5560
(lp5561
S'Jefferson Bancshares Inc'
p5562
ag747
asS'12/30/1991'
p5563
(lp5564
S'Affiliated Bankshares of CO'
p5565
ag202
asS'5/18/1998'
p5566
(lp5567
S'Summit Bankshares Inc,Raphine'
p5568
aS'One Valley Bancorp Inc,WV'
p5569
asS'5/5/1998'
p5570
(lp5571
S'Firstbank,Dallas,TX'
p5572
ag80
asS'11/8/1994'
p5573
(lp5574
S'Peoples Bk & Tr,Sunman,IN'
p5575
ag304
asS'5/18/1992'
p5576
(lp5577
S'First Florida Banks Inc'
p5578
ag56
asS'5/5/1994'
p5579
(lp5580
S'Mineral King Bancorp Inc'
p5581
ag2369
asS'5/5/1997'
p5582
(lp5583
S'First Michigan Bank Corp,MI'
p5584
ag881
asS'1/9/1985'
p5585
(lp5586
S'Community Bancshares Corp,NJ'
p5587
ag320
asS'5/18/1994'
p5588
(lp5589
S'Old Stone Bank of Calfornia'
p5590
ag2590
asS'5/5/1992'
p5591
(lp5592
S'FWNB Bancshares,Carrollton,TX'
p5593
ag147
asS'12/17/2015'
p5594
(lp5595
S'ProAmerica Bank'
p5596
aS'Pacific Commerce Bank'
p5597
asS'8/7/2003'
p5598
(lp5599
S'Village Bancorp Inc'
p5600
ag639
asS'10/13/2005'
p5601
(lp5602
S'Great Eastern Bank,New York,NY'
p5603
ag2171
asS'4/2/1993'
p5604
(lp5605
S'Valley Bancshares Inc'
p5606
ag3626
asS'4/2/1992'
p5607
(lp5608
S'Volunteer Bancshares Inc'
p5609
ag5056
asS'4/2/1990'
p5610
(lp5611
S'InBancshares'
p5612
ag367
asS'4/2/1996'
p5613
(lp5614
S'Home Federal,Hagerstown,MD'
p5615
ag171
asS'1/19/1994'
p5616
(lp5617
S'Barrow Bancshares'
p5618
ag1682
asS'7/27/2011'
p5619
(lp5620
g3832
ag3005
asS'7/27/2015'
p5621
(lp5622
S'Sutter Cmnty Bk,Yuba,CA'
p5623
aS'Suncrest Bk,Visalia,California'
p5624
asS'12/23/1985'
p5625
(lp5626
g2979
aS'Summcorp,Fort Wayne,Indiana'
p5627
asS'6/27/2006'
p5628
(lp5629
S'Republic Bancorp Inc,Owosso,MI'
p5630
ag1286
asS'6/27/2007'
p5631
(lp5632
S'Alaska First Bank & Trust NA'
p5633
aS'Northrim Bancorp Inc'
p5634
asS'6/27/2001'
p5635
(lp5636
S'Park Meridian Financial Corp'
p5637
ag4
asS'5/1/1989'
p5638
(lp5639
S'Sesser Bancorporation Inc'
p5640
ag68
asS'1/24/1996'
p5641
(lp5642
S'Union Cnty Natl Bancorp,IN'
p5643
ag580
asS'11/9/1994'
p5644
(lp5645
S'State Natl Bank of Marlow,OK'
p5646
ag3091
asS'1/23/1992'
p5647
(lp5648
S'Village Corp'
p5649
ag296
asS'1/23/1996'
p5650
(lp5651
S'Prairie Bancorp,Princeton,IL'
p5652
aS'UnionBancorp Inc,Ottawa,IL'
p5653
asS'11/9/1992'
p5654
(lp5655
S'Peoples Bancorp,Marietta,OH'
p5656
ag371
asS'8/21/1997'
p5657
(lp5658
S'Greenville Financial Corp,SC'
p5659
ag4
asS'8/21/1995'
p5660
(lp5661
S'Rancho Santa Fe National Bk,CA'
p5662
aS'FP Bancorp,Escondidio,CA'
p5663
asS'11/3/2015'
p5664
(lp5665
S'Floridian Financial Group Inc'
p5666
ag2084
asS'8/21/1998'
p5667
(lp5668
S'Anderson Cmnty Bank,Anderson'
p5669
ag580
asS'10/9/2012'
p5670
(lp5671
S'First Capital Bancshares Inc'
p5672
ag3554
asS'3/3/1987'
p5673
(lp5674
S'First Natl Bank of Fenton, MI'
p5675
ag202
asS'2/9/2009'
p5676
(lp5677
S'First National Bank & Trust,WY'
p5678
ag139
asS'10/10/2005'
p5679
(lp5680
S'Atlantic Bank of New York,NY'
p5681
ag4030
asS'10/9/2014'
p5682
(lp5683
S'Premier Coml Bk,Greensboro,NC'
p5684
aS'NewBridge Bancorp'
p5685
asS'2/9/2001'
p5686
(lp5687
S'FSL Holdings Inc,South Holland'
p5688
aS'MB Financial Inc,Chicago,IL'
p5689
asS'2/9/2000'
p5690
(lp5691
S'N Point Bancshares,Dawsonville'
p5692
ag1840
asS'2/9/2007'
p5693
(lp5694
S'Excel Bank Corp,Minneapolis,MN'
p5695
ag595
asS'8/23/1996'
p5696
(lp5697
S'Regional Bancshares,Alton,IL'
p5698
ag984
asS'3/18/2010'
p5699
(lp5700
S'Sterling Banks Inc'
p5701
aS'Roma Financial Corp'
p5702
asS'10/25/2003'
p5703
(lp5704
S'Harbor Bank,Newport News,VA'
p5705
ag1139
asS'4/10/2012'
p5706
(lp5707
S'South Valley Bancorp Inc'
p5708
ag650
asS'7/30/2014'
p5709
(lp5710
S'Broward Finl Hldg Inc,FL'
p5711
ag1221
asS'7/30/2013'
p5712
(lp5713
S'Gulfstream Bancshares Inc'
p5714
ag1428
asS'10/18/1999'
p5715
(lp5716
S'Carolina Fincorp Inc,NC'
p5717
aS'FNB Corp'
p5718
asS'9/30/1986'
p5719
(lp5720
S'Popular Bankshares,Miami,FL'
p5721
ag572
asS'10/18/1993'
p5722
(lp5723
S'First Kentucky Bancorp Inc'
p5724
ag5190
asS'10/30/2015'
p5725
(lp5726
S'First Niagara Finl Group Inc'
p5727
ag1861
asS'10/30/2014'
p5728
(lp5729
S'Citizens Natl Bk,Meyersdale,PA'
p5730
aS'Riverview Financial Corp'
p5731
asS'4/25/1997'
p5732
(lp5733
S'Gateway Bancorp,KY'
p5734
ag3012
asS'6/25/1996'
p5735
(lp5736
S'Mountain Parks Finl Corp,MN'
p5737
ag766
asS'6/25/1991'
p5738
(lp5739
S'C&S/Sovran Corp'
p5740
ag179
asS'6/25/1992'
p5741
(lp5742
S'Security Bk,First Bk,Catoosa'
p5743
ag758
asS'7/18/1995'
p5744
(lp5745
S'Ponte Vedra Banking Corp'
p5746
ag72
asS'7/18/1996'
p5747
(lp5748
S'Farmers Banc,Mullica Hill,NJ'
p5749
ag1739
asS'12/5/2011'
p5750
(lp5751
S'SE Financial Corp'
p5752
aS'Beneficial Mutual Bancorp Inc'
p5753
asS'6/3/1993'
p5754
(lp5755
S'Community Financial Bancorp'
p5756
ag5428
asS'2/6/1990'
p5757
(lp5758
S'First Interstate of Hawaii Inc'
p5759
ag1678
asS'1/30/1998'
p5760
(lp5761
S'BSM Bancorp,Santa Maria,CA'
p5762
aS'Mid-State Bk,Arroya Grande,CA'
p5763
asS'9/15/2003'
p5764
(lp5765
S'Southeast Texas Bancshares Inc'
p5766
ag413
asS'9/24/1992'
p5767
(lp5768
S'Sugar Creek National Bank,TX'
p5769
ag367
asS'5/26/2000'
p5770
(lp5771
S'Security Financial Corp'
p5772
ag3823
asS'9/24/1997'
p5773
(lp5774
S'Vectra Banking Corp,Denver,CO'
p5775
ag390
asS'9/24/1996'
p5776
(lp5777
S'Fort Brooke Bancorporation,FL'
p5778
ag80
asS'6/15/2004'
p5779
(lp5780
S'Encino State Bank,CA'
p5781
ag3426
asS'6/15/2006'
p5782
(lp5783
S'FCB Bancorp,Camarillo,CA'
p5784
aS'National Mercantile Bancorp'
p5785
asS'4/24/2003'
p5786
(lp5787
S'Reedburg Bancorporation Inc'
p5788
ag4418
asS'12/20/2006'
p5789
(lp5790
S'Sky Financial Group Inc,'
p5791
ag881
asS'12/12/1997'
p5792
(lp5793
S'Elmore County Bancshares Inc,'
p5794
aS'Peoples BancTrust,Selma,AL'
p5795
asS'6/19/2001'
p5796
(lp5797
S'CNB Finl Corp,Canajoharie,NY'
p5798
ag1050
asS'12/12/1995'
p5799
(lp5800
S'BayBanks,Boston,Massachusetts'
p5801
ag754
asS'12/12/1994'
p5802
(lp5803
S'First Southern Bancorp,NC'
p5804
ag866
asS'8/20/1998'
p5805
(lp5806
S'Jay Financial Corp,Portland,IN'
p5807
ag580
asS'8/20/1999'
p5808
(lp5809
S'Triangle Bancorp,Raleigh,NC'
p5810
ag866
asS'12/12/1991'
p5811
(lp5812
S'Southeastern Bancshares Inc'
p5813
ag292
asS'10/11/1991'
p5814
(lp5815
S'First Interstate of Iowa Inc'
p5816
ag758
asS'8/20/1996'
p5817
(lp5818
S'UST Bank/Connecticut,CN'
p5819
ag1399
asS'10/11/1995'
p5820
(lp5821
S'River Bend Bancshares Inc'
p5822
ag68
asS'10/11/1996'
p5823
(lp5824
S'Hartsville Bancshares Inc,TN'
p5825
ag687
asS'8/20/1993'
p5826
(lp5827
S'Otwell State Bank Inc'
p5828
ag3916
asS'5/13/1993'
p5829
(lp5830
S'Key State Bank'
p5831
ag1290
asS'5/13/1992'
p5832
(lp5833
S'Security Finanical Holding Co'
p5834
ag4121
asS'3/30/2012'
p5835
(lp5836
S'Gateway Bank of Pennsylvania'
p5837
ag1117
asS'5/13/1999'
p5838
(lp5839
g4773
ag1306
asS'3/30/2015'
p5840
(lp5841
S'SBM Financial Inc'
p5842
aS'Camden National Corp'
p5843
asS'5/7/1999'
p5844
(lp5845
S'Pioneer Bancorp,Reno,Nevada'
p5846
ag390
asS'6/17/1991'
p5847
(lp5848
S'Southeast Banking Corp,Miami'
p5849
ag56
asS'3/7/1989'
p5850
(lp5851
S'Florida Nat Bks of Florida Inc'
p5852
ag56
asS'12/14/2015'
p5853
(lp5854
S'Civic Bank & Trust'
p5855
aS'Franklin Financial Network Inc'
p5856
asS'3/20/2006'
p5857
(lp5858
S'Metrocorp Inc'
p5859
aS'National Bancshares Inc,IA'
p5860
asS'6/17/1993'
p5861
(lp5862
S'First Corp'
p5863
ag2404
asS'3/20/2000'
p5864
(lp5865
S'CCB Financial Corp,Durham,NC'
p5866
ag4362
asS'12/29/1993'
p5867
(lp5868
S'Guaranty Bancorp,Louisiana'
p5869
ag4
asS'3/20/2002'
p5870
(lp5871
S'Peoples Financial Corp Inc'
p5872
ag1117
asS'4/3/2003'
p5873
(lp5874
S'First Continental Bnk,Rosemead'
p5875
ag2171
asS'4/3/2007'
p5876
(lp5877
S'Commerce Bank,Aurora,Colorado'
p5878
ag2357
asS'7/14/1997'
p5879
(lp5880
S'Farmers Bancshares Inc,KS'
p5881
ag847
asS'7/14/1998'
p5882
(lp5883
S'Progressive Bancshares Inc'
p5884
ag970
asS'4/3/2009'
p5885
(lp5886
S'First Capital Bancorp'
p5887
aS'Eastern Virginia Bankshares'
p5888
asS'9/22/2004'
p5889
(lp5890
S'First Community Bancorp Inc,FL'
p5891
aS'Fidelity Bankshares Inc,FL'
p5892
asS'6/25/2007'
p5893
(lp5894
g2284
ag5428
asS'3/16/2004'
p5895
(lp5896
S'Fairbanco Hldg,Fairburn,GA'
p5897
ag1840
asS'3/16/2006'
p5898
(lp5899
S'Suncoast Bancorp Inc,FL'
p5900
ag1539
asS'3/16/2001'
p5901
(lp5902
S'FNH Corp,Herminie,PA'
p5903
aS'Promistar Financial Corp'
p5904
asS'12/16/2010'
p5905
(lp5906
S'MidCarolina Financial Corp'
p5907
ag1217
asS'2/4/1998'
p5908
(lp5909
S'KeyCorp NA-Branches(33)'
p5910
ag194
asS'6/30/2009'
p5911
(lp5912
S'Community National Corp'
p5913
aS'NB&T Financial Group Inc'
p5914
asS'11/23/2015'
p5915
(lp5916
S'Penn Liberty Finl Corp'
p5917
ag2063
asS'6/30/2004'
p5918
(lp5919
S'Allaire Community Bank,NJ'
p5920
aS'Monmouth Community Bancorp'
p5921
asS'6/30/2005'
p5922
(lp5923
S'United Natl Bk,San Marino,CA'
p5924
ag1443
asS'10/1/2015'
p5925
(lp5926
S'Security California Bancorp'
p5927
ag2951
asS'12/2/1991'
p5928
(lp5929
S'Alsip Bank & Trust,Alsip,IL'
p5930
ag3393
asS'12/18/1995'
p5931
(lp5932
S'First Mercantile Natl Bank,FL'
p5933
ag4
asS'12/2/1993'
p5934
(lp5935
S'Security National Bk,Pottstown'
p5936
ag485
asS'12/2/1992'
p5937
(lp5938
S'Pitcairn Private Bank'
p5939
ag256
asS'12/2/1994'
p5940
(lp5941
S'Citizens Natl Bancshares,LA'
p5942
ag2206
asS'12/2/1997'
p5943
(lp5944
S'Peoples Bank of Virginia'
p5945
ag1004
asS'4/4/2014'
p5946
(lp5947
S'Ohio Heritage Bancorp Inc'
p5948
ag3012
asS'10/19/2015'
p5949
(lp5950
S'Blueridge Bank,Frederick,MD'
p5951
aS'Revere Bank,Laurel,Maryland'
p5952
asS'4/6/1999'
p5953
(lp5954
S'Potomac Valley Bank,Petersburg'
p5955
ag992
asS'4/6/1998'
p5956
(lp5957
S'Citizens Holding Co'
p5958
ag5718
asS'11/16/1990'
p5959
(lp5960
S'First United Bancorp,IN'
p5961
ag580
asS'11/16/1993'
p5962
(lp5963
S'First Clyde Banc Corp'
p5964
ag304
asS'4/6/1993'
p5965
(lp5966
S'Missouri Bridge Bank'
p5967
ag758
asS'11/14/2011'
p5968
(lp5969
S'Virginia Savings Bancorp Inc'
p5970
ag2678
asS'11/14/2014'
p5971
(lp5972
S'PNA Bank,Chicago,Illinois'
p5973
aS'Royal Financial Inc,Chicago,Il'
p5974
asS'8/24/1989'
p5975
(lp5976
S'Signal Bancorp,Monticello,IN'
p5977
aS'Lincoln Financial Corp,IN'
p5978
asS'1/28/1994'
p5979
(lp5980
S'FGC Holding Co'
p5981
ag5381
asS'2/11/2014'
p5982
(lp5983
S'First Private Holdings Inc'
p5984
ag609
asS'1/28/1993'
p5985
(lp5986
S'Columbia National Bankshares'
p5987
ag1928
asS'12/3/1991'
p5988
(lp5989
S'BankAmerica-Certain Branches'
p5990
ag2373
asS'3/10/1987'
p5991
(lp5992
S'Elston Corp'
p5993
ag1521
asS'1/28/1999'
p5994
(lp5995
S'Mason-Dixon Bancshares,MD'
p5996
ag481
asS'1/28/1998'
p5997
(lp5998
S'Jersey Bank of Savings,NJ'
p5999
aS'Interchange Financial Svcs,NJ'
p6000
asS'12/3/1998'
p6001
(lp6002
S'FSB Inc,Covington,TN'
p6003
ag292
asS'12/6/1995'
p6004
(lp6005
S'Community National Bk,Franklin'
p6006
ag4824
asS'12/6/1991'
p6007
(lp6008
S'First Peoria Corp'
p6009
ag2357
asS'12/6/1993'
p6010
(lp6011
S'First Natl,Natl Bank,KY'
p6012
ag1656
asS'2/1/1999'
p6013
(lp6014
S'Broad Natl Bancorp,Newark,NJ'
p6015
aS'Independence Cmnty Bk Corp,NY'
p6016
asS'2/1/2001'
p6017
(lp6018
S'Pennsylvania Capital Bank'
p6019
aS'Three Rivers Bancorp Inc,PA'
p6020
asS'9/20/1985'
p6021
(lp6022
S'Southern Bancorp,Greenville,SC'
p6023
ag56
asS'2/1/2006'
p6024
(lp6025
S'Mid-Valley Bank,Woodburn,OR'
p6026
ag1054
asS'9/20/1989'
p6027
(lp6028
S'Plaza Commerce Bancorp'
p6029
ag367
asS'1/11/2007'
p6030
(lp6031
S'Chinese American Bank, NY,NY'
p6032
ag2171
asS'1/11/2005'
p6033
(lp6034
S'SVB Financial Services Inc,NJ'
p6035
ag214
asS'1/11/2002'
p6036
(lp6037
S'Pulaski Bancorp Inc,NJ'
p6038
ag5287
asS'5/13/1985'
p6039
(lp6040
S'First Hardin Natl Bank & Trust'
p6041
ag2098
asS'7/23/2013'
p6042
(lp6043
S'United Commerce Bancorp'
p6044
ag1079
asS'12/7/1992'
p6045
(lp6046
S'First Nat Bk,TX-Tyler Branch'
p6047
aS'First Nat Bank,Marshall,TX'
p6048
asS'12/22/1992'
p6049
(lp6050
S'Sand Springs Bancshares Inc'
p6051
ag743
asS'12/22/1993'
p6052
(lp6053
S'Plaza Natl Bk,Bartlesville,OK'
p6054
ag743
asS'7/8/1994'
p6055
(lp6056
S'Union Bank & Trust Montgomery'
p6057
ag4
asS'12/22/1995'
p6058
(lp6059
S'Commercial Bancorp of Georgia'
p6060
ag80
asS'7/8/1996'
p6061
(lp6062
S'Peoples Bancorp of Washington'
p6063
ag1079
asS'7/8/1999'
p6064
(lp6065
S'LCB Corp,Fayetteville,TN'
p6066
ag4
asS'12/7/1999'
p6067
(lp6068
S'Pioneer American Holding Corp'
p6069
ag1050
asS'8/11/1998'
p6070
(lp6071
S'Signal Corp,Wooster,OH'
p6072
ag888
asS'2/15/2000'
p6073
(lp6074
S'Panasia Bk,Fort Lee,NJ'
p6075
ag5428
asS'5/23/2014'
p6076
(lp6077
S'Aslin Group Inc'
p6078
aS'First Bus Finl Svcs Inc'
p6079
asS'2/15/2006'
p6080
(lp6081
S'Southwest Cmnty Bancorp,CA'
p6082
ag5552
asS'1/25/2005'
p6083
(lp6084
S'Commun Bank of Virginia,VA'
p6085
ag1147
asS'2/15/2008'
p6086
(lp6087
S'Iron & Glass Bancorp Inc'
p6088
ag111
asS'1/25/2007'
p6089
(lp6090
S'Civitas BankGroup Inc'
p6091
ag3756
asS'1/25/2006'
p6092
(lp6093
S'Western Washington Bancorp,WA'
p6094
aS'Heritage Financial Corp'
p6095
asS'5/10/2005'
p6096
(lp6097
S'United Financial Inc,NC'
p6098
ag5718
asS'5/10/2004'
p6099
(lp6100
S'Northview Financial Corp'
p6101
ag639
asS'2/2/2000'
p6102
(lp6103
S'First Commerce Bancshares Inc'
p6104
ag1362
asS'2/2/2001'
p6105
(lp6106
S'Community Tr Finl Svcs Corp'
p6107
ag1504
asS'2/2/2007'
p6108
(lp6109
S'Bank of Kansas,Hutchinson,KS'
p6110
aS'Southwest Bancorp Inc,OK'
p6111
asS'2/2/2005'
p6112
(lp6113
S'South Coast Bancorp Inc,CA'
p6114
aS'First California Bank,CA'
p6115
asS'6/21/1999'
p6116
(lp6117
S'South Texas Bancshares,TX'
p6118
ag36
asS'10/13/2008'
p6119
(lp6120
S'First Wisconsin Bank & Tr Co'
p6121
ag5860
asS'6/7/2004'
p6122
(lp6123
S'Bank of Astoria,OR'
p6124
ag1928
asS'6/7/2007'
p6125
(lp6126
S'Yardville National Bancorp,NJ'
p6127
ag447
asS'6/21/1995'
p6128
(lp6129
S'Security Bancorp Inc,Canton,GA'
p6130
ag3860
asS'10/12/1994'
p6131
(lp6132
S'First Robinson Bancorp'
p6133
ag234
asS'6/21/1996'
p6134
(lp6135
S'Westport Bancorp,Westport,CT'
p6136
ag1399
asS'10/23/2013'
p6137
(lp6138
g2668
ag6095
asS'5/2/2013'
p6139
(lp6140
S'The Prosperity Banking Co'
p6141
ag1072
asS'10/23/2015'
p6142
(lp6143
S'CIC Bancshares Inc'
p6144
ag1250
asS'11/2/1993'
p6145
(lp6146
S'Orange County Bancorp,Paoli,IN'
p6147
ag175
asS'8/13/2001'
p6148
(lp6149
S'First Bancshares of Texas,TX'
p6150
ag4
asS'3/25/2015'
p6151
(lp6152
S'Grand Bankshares Inc'
p6153
ag2084
asS'4/9/2007'
p6154
(lp6155
S'First Commerce Cmnty Bankshare'
p6156
ag1486
asS'1/13/1999'
p6157
(lp6158
S'Clearfield Bank and Trust,PA'
p6159
aS'Penn Laurel Financial Corp'
p6160
asS'1/13/1998'
p6161
(lp6162
S'Etowah Bank,Canton,Georgia'
p6163
ag4
asS'1/13/1997'
p6164
(lp6165
S'Southeastern IN Bancorp,IN'
p6166
ag304
asS'1/13/1995'
p6167
(lp6168
S'Val Cor Bancorp'
p6169
ag4820
asS'1/13/1994'
p6170
(lp6171
S'Indiana State Bank of Terra'
p6172
ag175
asS'8/4/1998'
p6173
(lp6174
S'American Independent Bank'
p6175
aS'First Coastal Bankshares Inc'
p6176
asS'8/3/1993'
p6177
(lp6178
S'First Federal Savings,Calhoun'
p6179
ag2524
asS'8/3/1995'
p6180
(lp6181
S'Huntington National Bank,PA'
p6182
ag1532
asS'1/18/2007'
p6183
(lp6184
S'Peoples Cmnty Bancshares Inc'
p6185
aS'Superior Bancorp,Alabama'
p6186
asS'8/4/1992'
p6187
(lp6188
S'Center Banks Inc'
p6189
ag1050
asS'8/4/1995'
p6190
(lp6191
S'Hawkeye Bancorp'
p6192
ag984
asS'8/4/1994'
p6193
(lp6194
S'Bank of Waverly'
p6195
aS'Bank of Suffolk'
p6196
asS'8/4/1997'
p6197
(lp6198
S'Capital Bancorp,Florida'
p6199
ag292
asS'1/18/2002'
p6200
(lp6201
S'Western Security Bancorp'
p6202
ag1389
asS'1/12/2006'
p6203
(lp6204
S'First Citizens Bank,Tennessee'
p6205
ag481
asS'10/13/2015'
p6206
(lp6207
S'NewBridge Bancorp'
p6208
ag5254
asS'2/3/1994'
p6209
(lp6210
S'Bank of Livermore,California'
p6211
ag2590
asS'2/3/1995'
p6212
(lp6213
S'First Bank Sys-Wisconsin Br(5)'
p6214
aS'First Fed Bancshares of Eau Cl'
p6215
asS'9/1/1983'
p6216
(lp6217
S'Arltru Bancorp'
p6218
ag4656
asS'9/11/1995'
p6219
(lp6220
S'Summit Bancorporation'
p6221
ag2140
asS'9/1/1987'
p6222
(lp6223
g2537
ag202
asS'9/11/1997'
p6224
(lp6225
S'NationsBbank-Oklahoma Br(10)'
p6226
ag3091
asS'9/1/1988'
p6227
(lp6228
S'First Natl Bk of Massillon,OH'
p6229
aS'First Bancorp of Ohio,Akron'
p6230
asS'6/4/1996'
p6231
(lp6232
S'Seaway Finl Corp,St Clair,MI'
p6233
ag914
asS'12/23/1992'
p6234
(lp6235
S'First Financial Associates'
p6236
ag202
asS'9/9/2005'
p6237
(lp6238
S'Rivoli BanCorp Inc,Macon,GA'
p6239
ag1486
asS'12/23/1994'
p6240
(lp6241
S'Southern Bank Group Inc'
p6242
ag425
asS'8/18/1997'
p6243
(lp6244
S'Liberty Financial Corp'
p6245
ag540
asS'8/18/1995'
p6246
(lp6247
S'Park Natl Bank of Houston,TX'
p6248
ag736
asS'8/18/1994'
p6249
(lp6250
S'Worthen Banking,Little Rock,AR'
p6251
ag758
asS'8/18/1993'
p6252
(lp6253
S'WM Bancorp'
p6254
ag1008
asS'6/2/1999'
p6255
(lp6256
S'Banknorth Group Inc,VT'
p6257
aS'Peoples Heritage Finl Group,ME'
p6258
asS'8/18/1998'
p6259
(lp6260
S'Harbor Bancorp Inc,Grays'
p6261
ag6095
asS'3/3/1998'
p6262
(lp6263
S'Community Financial Hldg,NJ'
p6264
ag1399
asS'2/22/1989'
p6265
(lp6266
S'First Coastal Banks Inc'
p6267
ag6258
asS'2/22/1988'
p6268
(lp6269
S'First City Corp,Fort Smith,AR'
p6270
ag245
asS'3/3/1995'
p6271
(lp6272
S'First Trust Bank-Branches(14)'
p6273
ag1627
asS'3/3/1997'
p6274
(lp6275
S'CB Bancorp,Michigan City,IN'
p6276
aS'Pinnacle Financial Svcs Inc,MI'
p6277
asS'1/29/2003'
p6278
(lp6279
S'Millennium Bank,Gainesville,FL'
p6280
ag96
asS'6/23/1998'
p6281
(lp6282
S'Capital Bank,Rockville,MD'
p6283
ag952
asS'6/23/1997'
p6284
(lp6285
S'Dadeland Bancshares,Miami,FL'
p6286
ag80
asS'6/23/1995'
p6287
(lp6288
S'Intercontinental Bank,Miami,FL'
p6289
ag1121
asS'6/23/1994'
p6290
(lp6291
S'Bocaq Bancorp Inc'
p6292
aS'Intercontinental Bank,Miami,FL'
p6293
asS'6/23/1993'
p6294
(lp6295
S'Inter Community Bancorp'
p6296
ag576
asS'5/27/2004'
p6297
(lp6298
S'Lamar Bancshares Inc,TX'
p6299
ag4335
asS'7/29/1994'
p6300
(lp6301
S'Med Center Bank'
p6302
ag1627
asS'4/19/1985'
p6303
(lp6304
S'Oregon Bank(Orbanco Finl Svcs)'
p6305
ag2397
asS'9/18/2006'
p6306
(lp6307
S'Summit Bank Corp,Atlanta,GA'
p6308
ag2171
asS'9/18/2001'
p6309
(lp6310
S'Riverway Holdings Inc'
p6311
ag413
asS'9/18/2002'
p6312
(lp6313
S'Bank of Ste Genevieve,MO'
p6314
ag2029
asS'12/21/2006'
p6315
(lp6316
S'Citizens Bancorp Inc,PA'
p6317
aS'Citizens & Northern Corp'
p6318
asS'12/26/2001'
p6319
(lp6320
S'Independence Bank of Houston'
p6321
ag4
asS'4/19/1989'
p6322
(lp6323
S'First Natl Bk&Tr,El Dorado,KS'
p6324
ag405
asS'12/21/2005'
p6325
(lp6326
S'Trustcorp Finl Inc,MO'
p6327
ag595
asS'3/27/2013'
p6328
(lp6329
S'North Cascades National Bk,WA'
p6330
ag139
asS'5/13/2004'
p6331
(lp6332
g4548
ag2516
asS'4/10/2000'
p6333
(lp6334
S'Heritage Bancorp Inc'
p6335
ag4
asS'7/27/2000'
p6336
(lp6337
S'FCNB Corp,Frederick,MD'
p6338
ag481
asS'1/24/2001'
p6339
(lp6340
S'F&M National,Winchester,VA'
p6341
ag481
asS'6/16/1992'
p6342
(lp6343
S'Bank of Commerce,Woodbury,TN'
p6344
ag292
asS'9/30/1994'
p6345
(lp6346
S'ENB Financial Corp'
p6347
ag952
asS'4/25/1989'
p6348
(lp6349
S'Ravenswood Financial Corp'
p6350
ag591
asS'9/30/1996'
p6351
(lp6352
S'Woodstown Natl Bk & Tr,NJ'
p6353
ag214
asS'3/26/1996'
p6354
(lp6355
S'Country Bancshares Inc,IL'
p6356
ag5653
asS'9/30/1999'
p6357
(lp6358
S'Bank of Leipsic Co Inc,Leipsic'
p6359
aS'United Bancshares Inc,Columbus'
p6360
asS'6/25/1987'
p6361
(lp6362
S'State National Corp,Evanston'
p6363
ag466
asS'10/19/1994'
p6364
(lp6365
S'Peoples Commercial Svcs Corp'
p6366
ag107
asS'10/19/1995'
p6367
(lp6368
S'Triad Bank,Greensboro,NC'
p6369
ag1169
asS'5/21/2007'
p6370
(lp6371
S'Peoples BancTrust,Selma,AL'
p6372
aS'BancTrust Financial Group Inc'
p6373
asS'9/10/2008'
p6374
(lp6375
S'American Cmnty Bancshares Inc'
p6376
ag1043
asS'8/25/1995'
p6377
(lp6378
S'Fourth Financial Corp'
p6379
ag758
asS'9/10/2004'
p6380
(lp6381
S'AdvantageBank-Branches(2)'
p6382
ag3012
asS'8/25/1998'
p6383
(lp6384
S'Peoples Bancorp of Winchester'
p6385
ag2508
asS'9/24/1986'
p6386
(lp6387
S'First Community Bancshares, GA'
p6388
aS'CB&T Bancshares,Columbus,GA'
p6389
asS'9/24/1985'
p6390
(lp6391
S'Suburban Bancorp, Bethesda, MD'
p6392
ag1814
asS'8/21/1989'
p6393
(lp6394
S'Westside Bank'
p6395
aS'Alameda Bancorporation Inc'
p6396
asS'6/16/1999'
p6397
(lp6398
S'Hartland Bank NA'
p6399
ag504
asS'5/6/2014'
p6400
(lp6401
S'Community First Bancshares Inc'
p6402
ag3163
asS'5/6/2015'
p6403
(lp6404
S'Bank of the Carolinas Corp'
p6405
ag284
asS'8/21/1985'
p6406
(lp6407
S'Banknorth Group Inc'
p6408
ag5424
asS'6/15/2011'
p6409
(lp6410
S'Parkvale Financial Corp'
p6411
ag111
asS'5/8/1985'
p6412
(lp6413
S'Fidelity Bk of Indiana,Carmel'
p6414
ag532
asS'4/12/1991'
p6415
(lp6416
S'Albright Bancorp Inc'
p6417
ag151
asS'4/12/1999'
p6418
(lp6419
S'Statewide Financial Corp,NJ'
p6420
ag6016
asS'7/29/1999'
p6421
(lp6422
S'Merchants Bancorp,Aurora,IL'
p6423
ag914
asS'10/4/1989'
p6424
(lp6425
g5434
aS'River Forest Bancorp'
p6426
asS'11/10/2014'
p6427
(lp6428
S'Valley Community Bank'
p6429
ag1596
asS'6/22/2001'
p6430
(lp6431
S'BYL Bancorp,Orange,CA'
p6432
ag100
asS'7/18/2014'
p6433
(lp6434
S'Peninsula Financial Corp'
p6435
aS'Mackinac Financial Corp'
p6436
asS'3/7/1995'
p6437
(lp6438
S'First Commercial Bank'
p6439
ag206
asS'3/7/1997'
p6440
(lp6441
g6015
ag1399
asS'3/7/1991'
p6442
(lp6443
g4927
ag4928
asS'7/9/2004'
p6444
(lp6445
S'Bank of Amador,Jackson,CA'
p6446
aS'American River Bankshares'
p6447
asS'11/1/1994'
p6448
(lp6449
S'Union Bancshares,Wichita,KS'
p6450
ag2357
asS'7/9/2007'
p6451
(lp6452
S'First Indiana Corp,Indiana'
p6453
ag595
asS'7/20/1995'
p6454
(lp6455
S'CoBank Financial Corp'
p6456
ag2369
asS'7/20/1998'
p6457
(lp6458
S'Pacific Capital Bancorp,CA'
p6459
ag1333
asS'7/12/2005'
p6460
(lp6461
S'Hudson United Bancorp,NJ'
p6462
aS'TD Banknorth Inc,Portland,ME'
p6463
asS'12/16/1991'
p6464
(lp6465
S"People's Bk of Charles Town,WV"
p6466
ag2853
asS'9/6/1989'
p6467
(lp6468
S'Scottsbluff Natl Bk & Trust,NE'
p6469
ag1298
asS'5/21/1984'
p6470
(lp6471
S'Nevada State Bk,NV'
p6472
aS'Zions Utah Bancorp,UT'
p6473
asS'5/21/1987'
p6474
(lp6475
S'Delaware Trust Co,DE'
p6476
ag2015
asS'1/21/2000'
p6477
(lp6478
S'Union National Bancorp Inc,MD'
p6479
ag1147
asS'1/21/2003'
p6480
(lp6481
S'First Virginia Banks Inc,VA'
p6482
ag481
asS'1/21/2004'
p6483
(lp6484
S'CNB Florida Bancshares Inc,FL'
p6485
ag1797
asS'1/22/1993'
p6486
(lp6487
S'Desert Southwest Community'
p6488
ag1753
asS'6/28/1994'
p6489
(lp6490
S'Oblong Bancshares Inc'
p6491
ag175
asS'6/28/1995'
p6492
(lp6493
S'QuestStar Bank NA'
p6494
ag367
asS'12/2/1986'
p6495
(lp6496
S'WB Financial,Wayne,Michigan'
p6497
ag409
asS'1/14/2004'
p6498
(lp6499
S'Bank One Corp,Chicago,IL'
p6500
aS'JPMorgan Chase & Co'
p6501
asS'5/15/2015'
p6502
(lp6503
S'First Scottsdale Bank,NA'
p6504
ag1250
asS'12/2/1988'
p6505
(lp6506
S'Security Natl Bank of Manistee'
p6507
ag183
asS'5/15/2013'
p6508
(lp6509
g1606
ag2357
asS'8/24/1990'
p6510
(lp6511
S'Homestate Bancorp Inc'
p6512
ag2617
asS'9/26/1989'
p6513
(lp6514
g1075
ag1814
asS'8/24/1995'
p6515
(lp6516
S'Financial Institutions'
p6517
aS'Suburban Bancshares'
p6518
asS'11/14/2001'
p6519
(lp6520
g2743
ag1720
asS'11/14/2005'
p6521
(lp6522
S'Minotola National Bank'
p6523
ag1739
asS'11/14/2007'
p6524
(lp6525
g4220
aS'Oritani Financial Corp'
p6526
asS'11/14/2006'
p6527
(lp6528
S'Valrico Bancorp Inc'
p6529
ag2455
asS'7/11/1995'
p6530
(lp6531
S'Landmark Bancorp'
p6532
ag2447
asS'7/11/1994'
p6533
(lp6534
S'Old White Bankshares Inc,WV'
p6535
aS'First Citizens Bancshares,TN'
p6536
asS'1/28/1987'
p6537
(lp6538
S'Second Natl Bank,Masontown,PA'
p6539
aS'Union National Corp,PA'
p6540
asS'3/10/1993'
p6541
(lp6542
S'Mt Vernon Bancorp Inc'
p6543
ag984
asS'1/28/1988'
p6544
(lp6545
S'United Bank of Arizona'
p6546
ag48
asS'7/10/2003'
p6547
(lp6548
S'First State Bancorp,CA'
p6549
ag3426
asS'7/10/2002'
p6550
(lp6551
S'Northern State Bank,Towanda,PA'
p6552
aS'Legacy Bank,Harrisburg,PA'
p6553
asS'4/28/1989'
p6554
(lp6555
S'Northern Highlands State Bank'
p6556
ag4495
asS'7/10/2000'
p6557
(lp6558
S'Premier Natl Bancorp Inc, NY'
p6559
ag2662
asS'4/28/1987'
p6560
(lp6561
S'Affiliated Banc Group Inc'
p6562
aS'Manufacturers National Corp'
p6563
asS'8/2/2006'
p6564
(lp6565
S'Piedmont Bancshares Inc,Atlant'
p6566
aS'PrivateBancorp Inc'
p6567
asS'10/9/2006'
p6568
(lp6569
S'Mercantile Bankshares Corp,MD'
p6570
ag447
asS'11/1/2013'
p6571
(lp6572
S'CapStone Bank,Raleigh,NC'
p6573
ag5685
asS'11/21/1997'
p6574
(lp6575
S'Texas Natl Bank of Baytown,TX'
p6576
aS'Bay Bancshares,Laporte,Texas'
p6577
asS'11/21/1995'
p6578
(lp6579
S'Moxham Bank Corp'
p6580
ag1532
asS'8/29/1999'
p6581
(lp6582
S'Saratoga Bancorp,Saratoga,CA'
p6583
aS'SJNB Financial Corp,CA'
p6584
asS'11/21/1991'
p6585
(lp6586
S'Main Line Bancshares Inc'
p6587
ag1008
asS'8/29/1997'
p6588
(lp6589
S'Barnett Banks,Jacksonville,FL'
p6590
ag1121
asS'8/29/1996'
p6591
(lp6592
S'Big Stone Gap Bank & Trust,VA'
p6593
ag5122
asS'9/28/2005'
p6594
(lp6595
S'Peoples Ohio Financial Corp,OH'
p6596
ag1757
asS'8/29/1991'
p6597
(lp6598
S'Wellsburg Banking and Trust Co'
p6599
aS'American Bancorporation Inc,WV'
p6600
asS'2/14/1997'
p6601
(lp6602
S'New Iberia Bancorp,Louisiana'
p6603
ag4
asS'3/9/1998'
p6604
(lp6605
S'Community First Financial,KY'
p6606
aS'National City Bancorp'
p6607
asS'11/6/1987'
p6608
(lp6609
S'First Fulton Bancshares, Ga'
p6610
ag996
asS'11/6/1986'
p6611
(lp6612
S'Chester Bank, Chester, CT'
p6613
ag4656
asS'11/6/1985'
p6614
(lp6615
S'First Indiana Bancorp, Elkhart'
p6616
ag2319
asS'2/14/1992'
p6617
(lp6618
S'First Peoples Financial Corp'
p6619
ag576
asS'8/10/2004'
p6620
(lp6621
S'Custar State Bank,Custar,Ohio'
p6622
aS'Croghan Bancshares Inc'
p6623
asS'11/23/2005'
p6624
(lp6625
g846
ag974
asS'1/5/1988'
p6626
(lp6627
S'M&M Financial Corp'
p6628
aS'Southern Bankshares,Beckley,WV'
p6629
asS'3/9/1994'
p6630
(lp6631
S'Citizens Bank & Trust,Evans,GA'
p6632
ag747
asS'10/24/1994'
p6633
(lp6634
S'US Trust Corp,New York,NY'
p6635
ag5032
asS'12/8/1997'
p6636
(lp6637
S'Deposit Guaranty,Jackson,MS'
p6638
ag687
asS'10/24/1997'
p6639
(lp6640
S'Firstshares of Texas Inc,TX'
p6641
ag335
asS'7/8/1985'
p6642
(lp6643
S'Broad Street Natl Bk,Trenton'
p6644
aS'First Jersey National Corp'
p6645
asS'5/17/2011'
p6646
(lp6647
S'Fullerton Federal Savings Assn'
p6648
aS'Fairmount Bancorp Inc'
p6649
asS'12/22/1988'
p6650
(lp6651
S'Southwest Bancorp Inc,OK'
p6652
ag308
asS'6/19/1996'
p6653
(lp6654
S'Community Bancshares,Louisiana'
p6655
ag676
asS'5/10/2010'
p6656
(lp6657
S'Atlantic Bancgroup Inc'
p6658
aS'Jacksonville Bancorp Inc,FL'
p6659
asS'1/25/2012'
p6660
(lp6661
S'Indiana Community Bancorp'
p6662
ag175
asS'7/5/2000'
p6663
(lp6664
S'Webster Bancorp Inc,Clay,KY'
p6665
ag4289
asS'7/5/2001'
p6666
(lp6667
S'Mid Town Bank & Trust Co'
p6668
aS'MAF Bancorp,Clarendon Hills,IL'
p6669
asS'6/11/1997'
p6670
(lp6671
S'Professional Bank,Glendale,CO'
p6672
ag1012
asS'9/25/1987'
p6673
(lp6674
S'Irving Bank Corp,New York,'
p6675
ag792
asS'5/3/1982'
p6676
(lp6677
S'First United Bancorp Inc'
p6678
aS'InterFirst Corp,Dallas,Texas'
p6679
asS'6/21/1989'
p6680
(lp6681
S'Security Bancshares Inc'
p6682
ag292
asS'4/18/1996'
p6683
(lp6684
S'FirstSouth Bank,Burlington,NC'
p6685
ag866
asS'4/18/1995'
p6686
(lp6687
S'Western Bank,Gallup,New Mexico'
p6688
aS'First Place Financial Corp'
p6689
asS'5/3/1987'
p6690
(lp6691
g6476
ag778
asS'6/13/2001'
p6692
(lp6693
S'Virginia Commonwealth Finl'
p6694
aS'Virginia Financial Corp,Staunt'
p6695
asS'5/31/1999'
p6696
(lp6697
S'First American Corp,Tennessee'
p6698
ag2524
asS'2/28/1997'
p6699
(lp6700
S'AmFirst Bancorp Inc,Everett,WA'
p6701
ag5465
asS'5/31/1996'
p6702
(lp6703
S'First Public Svgs Bk FSB,CA'
p6704
aS'Cathay Bancorp,Los Angeles,CA'
p6705
asS'5/31/1995'
p6706
(lp6707
S'Community Bank of the Islands'
p6708
ag996
asS'5/31/1994'
p6709
(lp6710
S'Security First Bank'
p6711
aS'Jefferson Bank,Philadelphia,PA'
p6712
asS'8/13/2013'
p6713
(lp6714
S'WNB Bancshares Inc'
p6715
ag736
asS'10/22/2012'
p6716
(lp6717
S'Pacific International Bancorp'
p6718
ag1366
asS'10/22/2013'
p6719
(lp6720
S'Alaska Pacific Bancshares Inc'
p6721
ag5634
asS'10/22/2014'
p6722
(lp6723
S'Independence Bk,Newport Beach'
p6724
ag2951
asS'4/16/1998'
p6725
(lp6726
S'First Capitol Bank,York,PA'
p6727
ag1739
asS'10/6/1994'
p6728
(lp6729
g5483
ag1347
asS'10/27/2010'
p6730
(lp6731
S'First Ipswich Bancorp,MA'
p6732
ag1370
asS'6/3/1994'
p6733
(lp6734
S'City Bancorp Inc,Louisiana'
p6735
ag52
asS'10/6/1999'
p6736
(lp6737
S'State Bank Alleghenies,VA'
p6738
ag1004
asS'4/16/1996'
p6739
(lp6740
S'First National Finl Corp,GA'
p6741
ag2554
asS'11/5/2007'
p6742
(lp6743
S'HeritageBanc Inc,Chicago,IL'
p6744
aS'Old Second Bancorp Inc'
p6745
asS'8/28/2002'
p6746
(lp6747
S'CNBC Bancorp,Worthington,Ohio'
p6748
ag580
asS'8/28/2001'
p6749
(lp6750
S'First Western Bank,NC'
p6751
ag522
asS'11/5/2001'
p6752
(lp6753
S'Gulf Coast Com Bancshares'
p6754
ag4618
asS'1/18/2011'
p6755
(lp6756
S'Sterling Bancshares Inc'
p6757
ag367
asS'8/2/2004'
p6758
(lp6759
S'First National Bankshares FL'
p6760
ag1656
asS'6/3/1991'
p6761
(lp6762
S'First Illinois Corp, Evanston'
p6763
ag202
asS'4/21/2014'
p6764
(lp6765
S'North Akron Savings Bk,Akron,O'
p6766
ag3012
asS'9/1/1994'
p6767
(lp6768
S'Omnibancorp,Denver,Colorado'
p6769
ag1861
asS'9/1/1997'
p6770
(lp6771
S'Harbor Bancorp,Long Beach,CA'
p6772
ag92
asS'9/1/1993'
p6773
(lp6774
S'Penn Central Bancorp Inc'
p6775
ag740
asS'1/27/1986'
p6776
(lp6777
S'Patriot Bancorp,Boston,MA'
p6778
aS'Conifer/Essex Group Inc'
p6779
asS'9/1/1999'
p6780
(lp6781
g5016
ag60
asS'9/1/1998'
p6782
(lp6783
S'Eagle Holding Co'
p6784
ag390
asS'8/18/1988'
p6785
(lp6786
S'Heritage Group Inc-Two Banks'
p6787
aS'FNW Bancorp Inc'
p6788
asS'2/25/2014'
p6789
(lp6790
S'Peoples Banking Co'
p6791
ag2835
asS'9/9/2013'
p6792
(lp6793
S'United Financial Banking Cos'
p6794
ag3564
asS'3/22/2011'
p6795
(lp6796
S'Embarcadero Bk,San Diego,CA'
p6797
aS'Coronado First Bk,Coronado,CA'
p6798
asS'3/22/2013'
p6799
(lp6800
S'Enterprise Bancorp Inc'
p6801
ag1209
asS'12/28/2012'
p6802
(lp6803
S'Roebling Financial Corp Inc'
p6804
aS'TF Financial Corp,Newtown,PA'
p6805
asS'11/3/1989'
p6806
(lp6807
S'Valley Financial Services Inc'
p6808
aS'First Illinois Corp, Evanston'
p6809
asS'7/6/2000'
p6810
(lp6811
S'Atlantic Financial,Corp,VA'
p6812
ag1004
asS'8/22/1996'
p6813
(lp6814
S'Fidelity Finl Bankshares,VA'
p6815
ag1135
asS'8/22/1997'
p6816
(lp6817
S'First National Summit,CO'
p6818
ag766
asS'8/22/1994'
p6819
(lp6820
S'Independent Bancorp of Arizona'
p6821
ag1165
asS'8/22/1990'
p6822
(lp6823
S'Twin City Bank,TC Bankshares'
p6824
ag496
asS'8/22/1991'
p6825
(lp6826
S'Foothill Independent Bancorp'
p6827
ag1389
asS'2/22/1999'
p6828
(lp6829
S'Republic Banking Corp,Miami,FL'
p6830
ag292
asS'8/7/2014'
p6831
(lp6832
S'Siuslaw Financial Group Inc'
p6833
ag2658
asS'4/19/1999'
p6834
(lp6835
S'F&M Bancorp,Kaukauna,WI'
p6836
ag1286
asS'1/29/2014'
p6837
(lp6838
S'First Southern Bancorp Inc'
p6839
ag1428
asS'5/27/2015'
p6840
(lp6841
S'Bank of America NA-Branches(5)'
p6842
ag111
asS'4/19/1993'
p6843
(lp6844
g3582
ag202
asS'12/6/1985'
p6845
(lp6846
S'Farmers & Merchants Bk,Indiana'
p6847
ag5978
asS'9/18/2015'
p6848
(lp6849
S'Pan Pacific Bank,Fremont,CA'
p6850
aS'California Bank of Commerce'
p6851
asS'10/17/1988'
p6852
(lp6853
S'Farmers & Merchants Bank,MD'
p6854
ag1739
asS'9/18/2013'
p6855
(lp6856
S'MetroCorp Bancshares Inc'
p6857
ag1443
asS'12/21/2011'
p6858
(lp6859
S'KeySource Financial Inc,NC'
p6860
ag1417
asS'7/7/2005'
p6861
(lp6862
S'Prestonwood Bancshares Inc,TX'
p6863
ag1585
asS'10/14/1997'
p6864
(lp6865
S'Texstar National Bk,Texas'
p6866
aS'Surety Capital Corp'
p6867
asS'11/7/1997'
p6868
(lp6869
S'Bank of America,CA-Branches(4)'
p6870
aS'Six Rivers National Bank,CA'
p6871
asS'11/7/1996'
p6872
(lp6873
S'SJS Bancorp Inc,St Joseph,MI'
p6874
aS'Shoreline Financial Corp,MI'
p6875
asS'12/22/2004'
p6876
(lp6877
S'Belmont Bancorp,Bridgeport,OH'
p6878
ag280
asS'5/22/2006'
p6879
(lp6880
S'BWC Finl Corp,Walnut Creek,CA'
p6881
aS'First Republic Bank,California'
p6882
asS'11/13/1989'
p6883
(lp6884
S'First Bank of Greater Pittston'
p6885
ag966
asS'1/3/1989'
p6886
(lp6887
S'Western Independent Bancshares'
p6888
ag2373
asS'11/1/1990'
p6889
(lp6890
S'Barneveld State Bank'
p6891
ag1205
asS'2/13/1984'
p6892
(lp6893
S'Maine National Corp'
p6894
ag324
asS'4/14/1997'
p6895
(lp6896
S'Peoples Bancshares,Kansas'
p6897
ag847
asS'4/14/1992'
p6898
(lp6899
S'Valley National Corp,Phoenix'
p6900
ag202
asS'8/25/1986'
p6901
(lp6902
S'Trenton Bank & Tr,Trenton,MI'
p6903
ag2541
asS'9/10/2014'
p6904
(lp6905
S'Colonial Finl Svcs Inc'
p6906
aS'Cape Bancorp Inc'
p6907
asS'11/25/1991'
p6908
(lp6909
S'First Petersburg Bancshares'
p6910
ag409
asS'11/25/1996'
p6911
(lp6912
S'Blue Ridge Bank,Sparta,NC'
p6913
aS'FCFT Inc,Princeton,WV'
p6914
asS'8/25/1989'
p6915
(lp6916
g3346
ag2015
asS'11/3/1999'
p6917
(lp6918
S'Michigan Financial Corp'
p6919
ag1362
asS'11/15/2006'
p6920
(lp6921
S'Emerald Bank,Dublin,Ohio'
p6922
aS'Middlefield Banc Corp,Ohio'
p6923
asS'11/3/1993'
p6924
(lp6925
S'Liberty National Bancorp'
p6926
ag202
asS'9/24/2002'
p6927
(lp6928
S'FirstService Bank,PA'
p6929
ag5428
asS'5/6/2004'
p6930
(lp6931
S'Slippery Rock Finl Corp,PA'
p6932
ag111
asS'11/3/1997'
p6933
(lp6934
S'Shelby Financial Corp,Ohio'
p6935
ag1290
asS'11/3/1994'
p6936
(lp6937
S'HNB Financial Group Inc'
p6938
ag2029
asS'12/11/1985'
p6939
(lp6940
S'Security National Corp'
p6941
ag724
asS'12/27/1996'
p6942
(lp6943
g5887
ag2206
asS'2/8/2007'
p6944
(lp6945
S'HNB Financial Services Inc'
p6946
ag3122
asS'1/22/2013'
p6947
(lp6948
S'First Lansing Bancorp Inc'
p6949
ag858
asS'1/4/1990'
p6950
(lp6951
g1183
ag2617
asS'12/5/2000'
p6952
(lp6953
S'Century South Banks Inc,GA'
p6954
ag481
asS'1/4/1996'
p6955
(lp6956
S'Central Bankshares,Cordele,GA'
p6957
ag2554
asS'1/4/1999'
p6958
(lp6959
S'Hebron Bancorp Inc,KY'
p6960
ag304
asS'6/22/2015'
p6961
(lp6962
S'First Mountain Bank'
p6963
aS'PBB Bancorp'
p6964
asS'12/21/2004'
p6965
(lp6966
S'Valley Comrce Bancorp Ltd,AZ'
p6967
ag743
asS'3/31/1993'
p6968
(lp6969
S'Community Bank,Carrollton,GA'
p6970
ag1682
asS'5/23/2002'
p6971
(lp6972
S'First Cmnty Ind BK,Denver,CO'
p6973
ag1497
asS'1/22/2014'
p6974
(lp6975
S'Central Community,Temple,Texas'
p6976
ag4060
asS'8/5/1992'
p6977
(lp6978
S'DSB Corp'
p6979
ag218
asS'8/5/1993'
p6980
(lp6981
S'Mountaineer Bankshares of WV'
p6982
aS'One Valley Bancorp of WV,WV'
p6983
asS'5/20/1993'
p6984
(lp6985
S'First National Bank of Vermont'
p6986
ag2000
asS'8/5/1991'
p6987
(lp6988
S'Kaw Valley Bancshares Inc'
p6989
aS'MidAmerican Corp'
p6990
asS'8/5/1996'
p6991
(lp6992
S'Metroplex Bancshares,Dallas,TX'
p6993
ag351
asS'8/5/1997'
p6994
(lp6995
S'Covenant Bancorp,New Jersey'
p6996
ag56
asS'5/20/1998'
p6997
(lp6998
S'First State Bancorp,Pittsburg'
p6999
ag847
asS'8/5/1998'
p7000
(lp7001
S'First National Bank of Tampa'
p7002
aS'Florida Banks Inc,FL'
p7003
asS'8/5/1999'
p7004
(lp7005
S'Haywood Bancshares Inc'
p7006
ag815
asS'4/24/1998'
p7007
(lp7008
S'Palomar Savings & Loan,CA'
p7009
aS'Community West Bancshares'
p7010
asS'2/21/1989'
p7011
(lp7012
S'Metropolitan Bancorp Inc'
p7013
ag202
asS'6/29/2015'
p7014
(lp7015
S'Ameriana Bancorp'
p7016
ag580
asS'4/24/1995'
p7017
(lp7018
S'First National Bank,Denver,CO'
p7019
ag1012
asS'4/24/1996'
p7020
(lp7021
S'Liberty Holding,Pensacola,FL'
p7022
ag455
asS'4/24/1990'
p7023
(lp7024
S'Spectrum Financial Corp'
p7025
ag2853
asS'11/10/2008'
p7026
(lp7027
S'Republic First Bancorp Inc'
p7028
aS'Pennsylvania Commerce Bancorp'
p7029
asS'9/14/2006'
p7030
(lp7031
S'Vision Bancshares Inc'
p7032
ag276
asS'12/27/1993'
p7033
(lp7034
S'Peoples Financial Services'
p7035
ag5381
asS'2/28/2007'
p7036
(lp7037
S'Monticello Bancshares Inc'
p7038
aS'CapitalSouth Bancorp'
p7039
asS'4/15/2005'
p7040
(lp7041
S'Rantoul First Bk,Rantoul,IL'
p7042
aS'First BancTrust Corp,Paris,IL'
p7043
asS'3/12/1999'
p7044
(lp7045
S'First Waukegan Corp,Illinois'
p7046
ag2714
asS'9/25/1996'
p7047
(lp7048
S'Sun Capital Bancorp,Utah'
p7049
ag2373
asS'9/25/1997'
p7050
(lp7051
S'Victory Bancshares,Memphis,TN'
p7052
ag2206
asS'3/12/1996'
p7053
(lp7054
S'Inland Empire Bk,Hermiston,OR'
p7055
ag1109
asS'3/12/1997'
p7056
(lp7057
S'Lafayette Bancshares Inc,MO'
p7058
aS'Lexington B&L Finl Corp,MO'
p7059
asS'1/21/2014'
p7060
(lp7061
S'North Valley Bancorp'
p7062
ag2225
asS'9/25/1991'
p7063
(lp7064
S'Florida Westcoast Banks Inc'
p7065
ag72
asS'7/15/2013'
p7066
(lp7067
S'Taylor Capital Group Inc'
p7068
ag3190
asS'1/22/1985'
p7069
(lp7070
S'First Ruskin Bk, Hillsborough'
p7071
aS'Barnett Banks FL Inc,Florida'
p7072
asS'2/17/1999'
p7073
(lp7074
S'Prime Bancorp,Philadelphia,PA'
p7075
ag187
asS'7/15/2015'
p7076
(lp7077
S'Bank of Santa Barbara,CA'
p7078
aS'Amer Riviera Bk,Santa Barbara'
p7079
asS'5/24/1995'
p7080
(lp7081
S'F&M Bancorp,Rochester,IN'
p7082
ag304
asS'3/1/2001'
p7083
(lp7084
S'Lone Star Bancorp,Houston,TX'
p7085
ag1585
asS'5/24/1993'
p7086
(lp7087
S'New River Bank'
p7088
ag1016
asS'12/19/1991'
p7089
(lp7090
S'Jefferson Bancorp,Peoria,Il'
p7091
ag202
asS'12/19/1996'
p7092
(lp7093
S'California Coml Bankshares,CA'
p7094
aS'Monarch Bancorp,California'
p7095
asS'12/19/1997'
p7096
(lp7097
S'NCF Financial Corp'
p7098
aS'Community Bank Shares of IN'
p7099
asS'12/19/1995'
p7100
(lp7101
S'Peoples State Bank,Topeka,KS'
p7102
ag984
asS'11/27/1995'
p7103
(lp7104
S'CFB Bancorp Inc'
p7105
ag504
asS'5/14/2007'
p7106
(lp7107
S'Synergy Financial Group Inc'
p7108
ag4030
asS'5/14/2001'
p7109
(lp7110
g4801
ag72
asS'11/27/1991'
p7111
(lp7112
S'First Security Corp of KY'
p7113
ag202
asS'5/14/2003'
p7114
(lp7115
S'MountainBank Financial Corp'
p7116
ag1797
asS'5/14/2002'
p7117
(lp7118
S'Marathon Bancorp'
p7119
ag436
asS'8/17/1989'
p7120
(lp7121
g1999
aS'Arrow Bank Corp'
p7122
asS'7/11/1986'
p7123
(lp7124
S'BancTEXAS Grp-4 Houston Banks'
p7125
aS'United Bankers Inc,Waco,Texas'
p7126
asS'3/21/2002'
p7127
(lp7128
S'Gulf West Banks Inc'
p7129
ag1797
asS'3/21/2000'
p7130
(lp7131
S'Bank Petaluma California'
p7132
ag1716
asS'3/21/2006'
p7133
(lp7134
S'Seasons Bancshares Inc,GA'
p7135
ag1539
asS'3/21/2005'
p7136
(lp7137
S'State Finl Svcs Corp,WI'
p7138
ag1890
asS'5/25/1993'
p7139
(lp7140
S'Cal Rep Bancorp Inc'
p7141
ag1627
asS'5/25/1994'
p7142
(lp7143
S'Harrisburg Bancshares Inc,IL'
p7144
ag2404
asS'5/25/1998'
p7145
(lp7146
S'Prime Bank of Central Florida'
p7147
ag80
asS'4/28/1993'
p7148
(lp7149
S'Blue Springs Bank'
p7150
aS'Central Mortgage Bancshares'
p7151
asS'4/28/1997'
p7152
(lp7153
S'Pinemont Bank,Houston,TX'
p7154
ag1807
asS'4/28/1999'
p7155
(lp7156
S'Regency Bancorp,Fresno,CA'
p7157
ag390
asS'12/29/1986'
p7158
(lp7159
S'Seattle Trust & Savings Bank'
p7160
ag2073
asS'8/2/2012'
p7161
(lp7162
S'First Shares Inc'
p7163
ag1250
asS'8/2/2001'
p7164
(lp7165
g6539
aS'Parkvale Financial Corp'
p7166
asS'1/5/1999'
p7167
(lp7168
S'First Carolina Fed Svgs,NC'
p7169
aS'First National Bank,Shelby,NC'
p7170
asS'10/21/1985'
p7171
(lp7172
S'City National Bank of Laredo'
p7173
ag4174
asS'10/21/1987'
p7174
(lp7175
S'Merchants & Planters Corp'
p7176
ag20
asS'8/29/1985'
p7177
(lp7178
S'IVB Financial Corp'
p7179
ag568
asS'12/20/2013'
p7180
(lp7181
S'Insight Bank,Worthington,OH'
p7182
ag304
asS'8/29/1988'
p7183
(lp7184
S'ANB Bancshares,Brunswick,GA'
p7185
ag996
asS'7/21/1987'
p7186
(lp7187
S'Security Bank of Nevada,Reno'
p7188
aS'Valley Capital Corp,Las Vegas'
p7189
asS'9/3/2003'
p7190
(lp7191
S'First & Ocean National Bank,MA'
p7192
ag892
asS'11/6/1995'
p7193
(lp7194
g6808
aS'Fort Wayne Natl Corp,Indiana'
p7195
asS'10/24/1986'
p7196
(lp7197
S'Valley Utah Bancorp,Salt Lake'
p7198
aS'Valley National Corp,Phoenix'
p7199
asS'5/17/2000'
p7200
(lp7201
S'Keystone Finl,Harrisburg,PA'
p7202
ag2662
asS'5/17/2002'
p7203
(lp7204
g5533
ag939
asS'5/17/2006'
p7205
(lp7206
S'NNB Holdings Inc'
p7207
aS'The Bank Holdings'
p7208
asS'5/17/2007'
p7209
(lp7210
S'Fort Worth Bancshares Inc,TX'
p7211
aS'Southside Bancshares,Tyler,TX'
p7212
asS'6/4/2014'
p7213
(lp7214
S'TF Financial Corp,Newtown,PA'
p7215
ag5428
asS'2/16/2004'
p7216
(lp7217
S'GreenPoint Financial Corp,NY'
p7218
ag477
asS'8/16/2001'
p7219
(lp7220
S'MCB Financial Corp,California'
p7221
aS'Business Bancorp,California'
p7222
asS'8/16/2007'
p7223
(lp7224
S'First Charter Corp,Charlotte'
p7225
ag1656
asS'5/9/1986'
p7226
(lp7227
S'Mount Hood Sec Bank,Oregon'
p7228
ag1228
asS'5/9/1985'
p7229
(lp7230
S'Security Financial Services Co'
p7231
ag5326
asS'1/8/1990'
p7232
(lp7233
g4128
ag778
asS'5/3/1993'
p7234
(lp7235
S'Continental Bancorp'
p7236
ag1753
asS'4/18/1986'
p7237
(lp7238
S'Mutual Banc Corp'
p7239
aS'First Kentucky National Corp'
p7240
asS'8/29/1994'
p7241
(lp7242
S'State Bank of Fayetteville'
p7243
ag6536
asS'5/3/1996'
p7244
(lp7245
S'Hanover Bank,Mechanicsville,VA'
p7246
ag4942
asS'5/3/1995'
p7247
(lp7248
S'Metrobank NA'
p7249
ag367
asS'1/10/2000'
p7250
(lp7251
S'Anchor Financial Corp'
p7252
ag1463
asS'5/3/1999'
p7253
(lp7254
S'Bay Commercial Services,CA'
p7255
ag1716
asS'12/18/2002'
p7256
(lp7257
S'First Commerce Corp,NC'
p7258
ag5159
asS'12/18/2003'
p7259
(lp7260
S'Peoples First Inc,Oxford,PA'
p7261
ag5428
asS'12/18/2000'
p7262
(lp7263
S'Citizens Community Bancorp Inc'
p7264
ag1023
asS'3/3/2007'
p7265
(lp7266
S'Charter Bank,Bellevue,WA'
p7267
ag3426
asS'12/16/1988'
p7268
(lp7269
S'Community Finl,Harbor Beach,MI'
p7270
ag1290
asS'12/16/1985'
p7271
(lp7272
S'Union Bancorp, Grand Rapids,MI'
p7273
ag466
asS'12/16/1987'
p7274
(lp7275
S'Commercial National Bank,Ohio'
p7276
ag1656
asS'11/13/2001'
p7277
(lp7278
S'First Finan Corp,Providence,RI'
p7279
ag4462
asS'1/17/2001'
p7280
(lp7281
g6372
ag4618
asS'3/28/1994'
p7282
(lp7283
S'Fishkill National Corp'
p7284
aS'Community Bancorp Inc NY'
p7285
asS'5/25/2001'
p7286
(lp7287
S'Charter Pacific Bank,Agoura,CA'
p7288
ag100
asS'9/6/2006'
p7289
(lp7290
S'BUCS Financial Corp'
p7291
ag3436
asS'8/20/1986'
p7292
(lp7293
S'First Tuskaloosa Corp,Alabama'
p7294
ag2524
asS'8/15/2002'
p7295
(lp7296
g3518
ag36
asS'8/15/2007'
p7297
(lp7298
S'MidAmerica Bancshares,TN'
p7299
ag500
asS'8/15/2006'
p7300
(lp7301
S'Islands Bancorp,Beaufort,SC'
p7302
ag1072
asS'10/22/2003'
p7303
(lp7304
S'Indian River Banking Co,FL'
p7305
ag96
asS'12/28/1993'
p7306
(lp7307
S'Farmers Bancshares Inc'
p7308
ag2029
asS'10/22/2007'
p7309
(lp7310
S'Stockmans Finl Group,CA'
p7311
ag4236
asS'10/6/1987'
p7312
(lp7313
S'First National Bk of Destin,FL'
p7314
ag2524
asS'4/27/1992'
p7315
(lp7316
S"People's Bank of VA Beach"
p7317
ag2597
asS'9/7/1999'
p7318
(lp7319
S'Patapsco Valley Bancshares Inc'
p7320
ag171
asS'10/25/1989'
p7321
(lp7322
S'Valley Bank,Mount Vernon,WA'
p7323
ag621
asS'5/2/1995'
p7324
(lp7325
S'HNB Corp'
p7326
ag288
asS'10/25/1984'
p7327
(lp7328
S'Alaska Pacific Bancorp,AK'
p7329
ag4164
asS'6/1/1992'
p7330
(lp7331
g6205
aS'Mid-South Bancorp Inc'
p7332
asS'6/1/1994'
p7333
(lp7334
g4875
ag335
asS'6/1/1996'
p7335
(lp7336
S'SBT Bancshares Inc,Selmer,TN'
p7337
ag292
asS'6/1/1998'
p7338
(lp7339
S'United Bancorp,Roseburg,OR'
p7340
ag2184
asS'6/1/1999'
p7341
(lp7342
S'Gloversville Federal Savings'
p7343
aS'CNB Bancorp,Gloversville,NY'
p7344
asS'4/21/2006'
p7345
(lp7346
S'Citizen Development Co,MT'
p7347
ag139
asS'4/21/2000'
p7348
(lp7349
g4935
ag1050
asS'2/19/1997'
p7350
(lp7351
S'Port St Lucie Natl Bk Hldg,FL'
p7352
ag2084
asS'2/19/1993'
p7353
(lp7354
S'First Sunbelt Bankshares Inc'
p7355
ag2524
asS'2/19/1991'
p7356
(lp7357
S'Bank of Lexington and Trust,KY'
p7358
aS'Liberty National Bancorp'
p7359
asS'6/5/2012'
p7360
(lp7361
S'Sistersville Bancorp Inc'
p7362
ag3012
asS'2/19/1998'
p7363
(lp7364
S'Jacobs Bank,Scottsboro,Alabama'
p7365
ag4
asS'9/29/1997'
p7366
(lp7367
S'Union State Bank,Payne,Ohio'
p7368
ag304
asS'12/22/1987'
p7369
(lp7370
S'Southold Savings Bank'
p7371
ag477
asS'2/25/2005'
p7372
(lp7373
S'Alliance Finl Corp,Harbert,MI'
p7374
ag3741
asS'2/25/2002'
p7375
(lp7376
S'Rowan Bancorp,China Grove,NC'
p7377
ag5718
asS'10/24/1995'
p7378
(lp7379
S'First Gwinnett Bankshares Inc'
p7380
ag4
asS'6/5/2014'
p7381
(lp7382
S'Harbor Bank Group Inc'
p7383
ag1417
asS'3/22/2000'
p7384
(lp7385
S'Estes Bank Corp,Estes Park,CO'
p7386
aS'Vail Banks Inc,Vail,Colorado'
p7387
asS'1/31/2014'
p7388
(lp7389
S'Mission Oaks Bancorp Inc'
p7390
aS'AltaPacific Bank'
p7391
asS'1/31/2013'
p7392
(lp7393
S'First National Bank of Baldwin'
p7394
aS'First Bancshares Inc,MS'
p7395
asS'3/22/2007'
p7396
(lp7397
S'Northwest Suburban Bancorp Inc'
p7398
ag4583
asS'3/22/2004'
p7399
(lp7400
S'Southern Community Bancorp,FL'
p7401
aS'First National Bankshares FL'
p7402
asS'1/9/2007'
p7403
(lp7404
S'Placer Sierra Bancshares,CA'
p7405
ag1362
asS'12/28/2005'
p7406
(lp7407
S'Standard Bank,Monterey Park,CA'
p7408
ag1443
asS'12/28/2009'
p7409
(lp7410
S'First Chester County Corp,PA'
p7411
aS'Tower Bancorp Inc'
p7412
asS'6/20/1997'
p7413
(lp7414
S'SparBank Inc,McHenry,Illinois'
p7415
ag401
asS'6/20/1994'
p7416
(lp7417
S'Southwest Bankers Inc'
p7418
ag504
asS'6/20/1995'
p7419
(lp7420
S'Capital Bancorp Inc'
p7421
ag292
asS'1/9/2008'
p7422
(lp7423
S'Shore Financial Corp,VA'
p7424
ag1410
asS'6/20/1991'
p7425
(lp7426
S'South Carolina National'
p7427
ag16
asS'6/5/1998'
p7428
(lp7429
S'Community Financial Corp'
p7430
ag96
asS'6/5/1992'
p7431
(lp7432
S'Key Centurion Bancshares,WV'
p7433
ag2494
asS'3/2/1988'
p7434
(lp7435
S'Peoples First Natl Bk & Tr, PA'
p7436
ag3159
asS'6/4/1993'
p7437
(lp7438
S'Western National Bancorp Inc'
p7439
ag405
asS'1/10/2007'
p7440
(lp7441
S'Bank of Richmond NA'
p7442
aS'Gateway Financial Holdings Inc'
p7443
asS'4/17/1989'
p7444
(lp7445
S'Nevada First Development Corp'
p7446
ag2397
asS'11/7/1985'
p7447
(lp7448
S'Central Fl Bk Corp,Dade City'
p7449
ag56
asS'1/10/2003'
p7450
(lp7451
S'First County Bk,Doylestown,PA'
p7452
ag3275
asS'1/19/2007'
p7453
(lp7454
S'Merrill Merchants Bancshares'
p7455
ag770
asS'6/4/1999'
p7456
(lp7457
S'American Pacific State Bank,CA'
p7458
ag92
asS'6/4/1998'
p7459
(lp7460
S'Peoples National Bank'
p7461
ag1532
asS'11/12/2014'
p7462
(lp7463
S'Susquehanna Bancshares Inc'
p7464
ag481
asS'11/13/1996'
p7465
(lp7466
S'Farrington Bk,N Brunswick,NJ'
p7467
ag1035
asS'11/13/1995'
p7468
(lp7469
S'Victoria Bankshares Inc'
p7470
ag1165
asS'11/9/2015'
p7471
(lp7472
S'Bk of Georgetown,Washington'
p7473
ag206
asS'8/14/2007'
p7474
(lp7475
S'Union Bankshares Co,Ellsworth,'
p7476
ag1543
asS'11/13/1998'
p7477
(lp7478
S'First Citizens Bancorp of AL'
p7479
ag131
asS'2/13/1997'
p7480
(lp7481
S'Founders Bank,Bryn Mawr,PA'
p7482
ag1739
asS'4/14/1986'
p7483
(lp7484
S'First La Porte Financial, IN'
p7485
ag409
asS'4/14/1989'
p7486
(lp7487
S'First State Bank and Trust Co'
p7488
ag1093
asS'8/1/1986'
p7489
(lp7490
S'American Security Corp,DC'
p7491
aS'Maryland National Corp'
p7492
asS'2/13/1998'
p7493
(lp7494
S'Olde Port Bank and Trust,NH'
p7495
ag720
asS'6/23/1986'
p7496
(lp7497
S'Peoples Liberty Banc,Covington'
p7498
ag881
asS'6/10/1998'
p7499
(lp7500
S'CSB Financial Corp,Tennessee'
p7501
ag687
asS'2/27/1997'
p7502
(lp7503
S'Citizens Natl Bk of Darlington'
p7504
ag826
asS'6/10/1994'
p7505
(lp7506
S'J Hanson Svngs Bnk-Branches(4)'
p7507
ag256
asS'6/10/1997'
p7508
(lp7509
S'Jefferson Bankshares Inc,VA'
p7510
ag16
asS'6/10/1996'
p7511
(lp7512
S'Granville United Bk,Oxford,NC'
p7513
ag716
asS'2/27/1992'
p7514
(lp7515
S'Columbia Bank,Avondale,Arizona'
p7516
aS'Valley Natl Bk,Phoenix,AZ'
p7517
asS'6/10/1993'
p7518
(lp7519
S'First Performance Nat Bank'
p7520
ag504
asS'11/15/2013'
p7521
(lp7522
g1649
aS'Rockville Financial Inc'
p7523
asS'8/19/1999'
p7524
(lp7525
S'Anson Bancorp Inc,Wadesboro,NC'
p7526
aS'Uwharrie Capital Corp,NC'
p7527
asS'8/19/1994'
p7528
(lp7529
S'White County Bank,Carmi,IL'
p7530
ag970
asS'8/19/1991'
p7531
(lp7532
S'F&M Financial Services Corp'
p7533
ag1890
asS'11/3/1983'
p7534
(lp7535
g319
aS'Mellon National Corp'
p7536
asS'2/26/2007'
p7537
(lp7538
S'FNB Financial Services Corp,NC'
p7539
ag3047
asS'5/1/2008'
p7540
(lp7541
S'Partners Financial Holdings'
p7542
aS'First Clover Leaf Finl Corp'
p7543
asS'2/26/2001'
p7544
(lp7545
S'Commercial Federal-MN Branches'
p7546
aS'HF Financial Corp'
p7547
asS'5/1/2002'
p7548
(lp7549
S'High Street Corp,Asheville,NC'
p7550
aS'Capital Bank Corp,Raleigh,NC'
p7551
asS'5/1/2001'
p7552
(lp7553
S'Southside Bancshares Corp'
p7554
aS'Allegiant Bancorp,St Louis,MO'
p7555
asS'5/1/2007'
p7556
(lp7557
S'Bank of Navasota NA,TX'
p7558
ag36
asS'10/21/2013'
p7559
(lp7560
S'Mission Community Bancorp'
p7561
ag854
asS'10/7/1999'
p7562
(lp7563
S'BC Bankshares Inc,Georgia'
p7564
ag16
asS'11/17/2014'
p7565
(lp7566
S'Valley Financial,Roanoke,VA'
p7567
ag1417
asS'1/4/1988'
p7568
(lp7569
S'Citizens Nat Bk,DownersGrove'
p7570
aS'Boulevard Bancorp Inc'
p7571
asS'9/2/1998'
p7572
(lp7573
S'Citizens Bancorp Inc,Tulsa,OK'
p7574
ag847
asS'7/25/1997'
p7575
(lp7576
S'UniBank,Steubenville,Ohio'
p7577
ag704
asS'9/2/1992'
p7578
(lp7579
S'DCB Corp'
p7580
ag175
asS'9/2/1994'
p7581
(lp7582
S'Standard Bank & Trust Co,Dunn'
p7583
ag716
asS'8/6/2015'
p7584
(lp7585
S'Tradition Bancshares Inc'
p7586
ag819
asS'8/6/2014'
p7587
(lp7588
S'First of Huron Corp'
p7589
ag155
asS'5/28/2014'
p7590
(lp7591
S'Liberty Bancshares Inc,MO'
p7592
ag3163
asS'5/20/1986'
p7593
(lp7594
S'Farmers&Mrchnts Bk,Walterboro'
p7595
ag1158
asS'5/20/1985'
p7596
(lp7597
S'Midwest Commerce Corp'
p7598
ag466
asS'7/1/2014'
p7599
(lp7600
S'Ohio State Bank,Marion,Ohio'
p7601
ag6360
asS'9/14/2012'
p7602
(lp7603
S'Northwest Commercial Bank,WA'
p7604
ag6095
asS'6/29/2005'
p7605
(lp7606
S'1st State Bancorp Inc,NC'
p7607
ag7551
asS'6/29/2000'
p7608
(lp7609
S'First Bank & Trust,Newport Bea'
p7610
ag100
asS'6/29/2001'
p7611
(lp7612
S'FABP Bancshares Inc'
p7613
ag1347
asS'5/9/2004'
p7614
(lp7615
S'Natl Commerce Finl Corp,TN'
p7616
ag72
asS'12/9/1994'
p7617
(lp7618
S'North Bay Bancorp(Westamerica)'
p7619
ag1902
asS'10/26/1989'
p7620
(lp7621
S'La Jolla Bancorp'
p7622
ag308
asS'12/8/2015'
p7623
(lp7624
S'MBT Bancshares Inc'
p7625
ag743
asS'12/9/1997'
p7626
(lp7627
S'Louisiana National Security'
p7628
ag455
asS'12/8/2011'
p7629
(lp7630
S'Highlands Bancshares Inc,TX'
p7631
aS'ViewPoint Financial Group Inc'
p7632
asS'11/24/1987'
p7633
(lp7634
S'Gary-Wheaton Corp'
p7635
ag591
asS'3/6/2014'
p7636
(lp7637
S'BCB Holding Co Inc'
p7638
ag7395
asS'3/6/2013'
p7639
(lp7640
S'San Diego Trust Bank'
p7641
ag2951
asS'7/15/2004'
p7642
(lp7643
S'Heritage Finl Hldg Co,AL'
p7644
ag1351
asS'7/15/2002'
p7645
(lp7646
S'Bank of the Southwest,Dallas'
p7647
ag36
asS'5/24/1989'
p7648
(lp7649
S'Winnetka Bank,IL'
p7650
ag591
asS'3/1/2012'
p7651
(lp7652
g5945
ag459
asS'12/26/1990'
p7653
(lp7654
S'Marine Bank,Chicago,Illinois'
p7655
ag202
asS'9/28/1998'
p7656
(lp7657
S'Washington Indep Bancshares'
p7658
ag6095
asS'8/31/2001'
p7659
(lp7660
S'Bank of Tidewater,VA Beach,VA'
p7661
ag425
asS'9/28/1994'
p7662
(lp7663
S'Community State Bank,IL'
p7664
ag758
asS'5/14/2015'
p7665
(lp7666
S'America California Bank,CA'
p7667
ag3891
asS'8/31/2005'
p7668
(lp7669
S'Access Anytime Bancorp Inc,NM'
p7670
ag1497
asS'5/14/2013'
p7671
(lp7672
S'Mayflower Bancorp Inc'
p7673
ag1246
asS'1/18/1996'
p7674
(lp7675
S'Premier Financial Services'
p7676
aS'Northern Illinois Financial'
p7677
asS'3/21/2014'
p7678
(lp7679
S'Colonial Virginia Bank'
p7680
aS'Xenith Bankshares Inc'
p7681
asS'11/15/1996'
p7682
(lp7683
S'West Coast Bancorp Inc,Florida'
p7684
ag1023
asS'10/5/1989'
p7685
(lp7686
S'First National Bank of Cudahy'
p7687
ag1205
asS'5/29/2014'
p7688
(lp7689
S'Virginia Co Bank,Newport News'
p7690
ag5888
asS'8/17/1994'
p7691
(lp7692
S'Bank of Western Massachusetts'
p7693
ag770
asS'4/7/2014'
p7694
(lp7695
S'MBT Bancorp,West Harrison,IN'
p7696
ag1757
asS'4/7/2015'
p7697
(lp7698
S'CapitalMark Bank & Trust'
p7699
ag500
asS'5/29/2015'
p7700
(lp7701
S'Premier Valley Bank,Fresno,CA'
p7702
ag1250
asS'9/30/2013'
p7703
(lp7704
S'Select Bancorp Inc'
p7705
aS'New Century Bancorp Inc,NC'
p7706
asS'12/29/1999'
p7707
(lp7708
S'Citizens Bank & Trust Co,PA'
p7709
ag485
asS'10/21/1999'
p7710
(lp7711
S'Village Financial Corp,NJ'
p7712
ag6805
asS'10/21/1998'
p7713
(lp7714
S'Wayne Bancorp,Jesup,Georgia'
p7715
aS'First Banking Co of Southeast'
p7716
asS'10/21/1993'
p7717
(lp7718
S'InvestArk Bankshares Inc'
p7719
ag245
asS'10/21/1992'
p7720
(lp7721
S'First City Bancorp of Texas'
p7722
aS'Texas Commerce Bancshares,TX'
p7723
asS'10/21/1991'
p7724
(lp7725
S'Summit Holding Corp'
p7726
ag206
asS'10/21/1997'
p7727
(lp7728
S'CSB Bancorp,Petersburg,Indiana'
p7729
ag1079
asS'12/29/1997'
p7730
(lp7731
S'FP Bancorp,Escondidio,CA'
p7732
ag390
asS'7/21/1998'
p7733
(lp7734
S'Elverson National Bank'
p7735
ag5428
asS'7/21/1995'
p7736
(lp7737
S'Bank of Boston Corp,Boston,MA'
p7738
ag202
asS'7/21/1997'
p7739
(lp7740
S'Signet Bkg Corp,Richmond,VA'
p7741
ag56
asS'7/21/1992'
p7742
(lp7743
S'Denver National Bank,Denver,PA'
p7744
ag214
asS'5/4/2000'
p7745
(lp7746
S'Harbor Federal Bancorp Inc,MD'
p7747
ag1944
asS'5/4/2005'
p7748
(lp7749
S'PFS Bancorp Inc'
p7750
ag4593
asS'5/4/2007'
p7751
(lp7752
S'Greater Bay Bancorp,Palo Alto'
p7753
ag1362
asS'12/10/2012'
p7754
(lp7755
S'Coppermark Bancshares Inc'
p7756
ag819
asS'7/31/2015'
p7757
(lp7758
S'Canon Bank Corp'
p7759
ag139
asS'7/31/2014'
p7760
(lp7761
S'Intervest Bancshares Corp'
p7762
ag284
asS'3/11/2011'
p7763
(lp7764
S'Cameron Bancshares Inc'
p7765
ag609
asS'3/11/2014'
p7766
(lp7767
S'Coastal Bankshares Inc'
p7768
ag1072
asS'10/28/1998'
p7769
(lp7770
S'First Coastal Bankshares Inc'
p7771
ag866
asS'10/28/1991'
p7772
(lp7773
S'Manufacturers National Corp'
p7774
ag367
asS'10/28/1992'
p7775
(lp7776
g3806
ag3777
asS'10/28/1994'
p7777
(lp7778
S'Cleveland Federal Bank'
p7779
ag866
asS'10/28/1996'
p7780
(lp7781
S'Premier Bankshs,Bluefield,VA'
p7782
ag32
asS'10/28/1997'
p7783
(lp7784
S'Peoples State Bank,PA'
p7785
aS'Community Banks Inc,PA'
p7786
asS'3/26/1991'
p7787
(lp7788
S'Farmers Exchange Bk,Kentucky'
p7789
ag1656
asS'3/26/1993'
p7790
(lp7791
S'First Fed Svgs BK,Marianna,FL'
p7792
ag2800
asS'3/26/1992'
p7793
(lp7794
S'Theodore Roosevelt Natl Bank'
p7795
aS'Industrial Bk of Washington,DC'
p7796
asS'5/9/1994'
p7797
(lp7798
S'North American Bank Corp'
p7799
ag5424
asS'3/26/1997'
p7800
(lp7801
S'Goleta National Bank,Goleta,CA'
p7802
aS'Los Robles Bancorp,California'
p7803
asS'2/28/1986'
p7804
(lp7805
S'First Ashland Corp, Kentucky'
p7806
ag687
asS'2/28/1989'
p7807
(lp7808
S'Howard Bancorp,Burlington,VT'
p7809
ag5424
asS'3/26/1998'
p7810
(lp7811
S'Sumitomo Bank of California'
p7812
ag390
asS'12/10/1985'
p7813
(lp7814
S'NewCentury Bank Corp,MI'
p7815
ag409
asS'1/24/2007'
p7816
(lp7817
S'Partners Bank of Texas'
p7818
ag1585
asS'12/18/2013'
p7819
(lp7820
S'South Street Financial Corp'
p7821
ag1417
asS'11/26/2014'
p7822
(lp7823
S'Pac Rim Bk,Honolulu,Hawaii'
p7824
aS'First Foundation Inc'
p7825
asS'12/16/1993'
p7826
(lp7827
S'Farmers Svgs Bk, Northwood OH'
p7828
ag2545
asS'7/12/2007'
p7829
(lp7830
S'S&C Banco Inc'
p7831
ag599
asS'12/16/1997'
p7832
(lp7833
S'Lanier Bank & Trust,Cumming,GA'
p7834
ag658
asS'12/16/1996'
p7835
(lp7836
S'First Bankshares,Hapeville,GA'
p7837
ag4
asS'12/16/1994'
p7838
(lp7839
S'Sparks State Bank,Sparks,MD'
p7840
ag1147
asS'4/26/2004'
p7841
(lp7842
S'Yolo Community Bank,CA'
p7843
ag4774
asS'12/16/1999'
p7844
(lp7845
S'First Savings Bancorp Inc,NC'
p7846
ag143
asS'12/16/1998'
p7847
(lp7848
S'Vermont Financial Services,VT'
p7849
ag770
asS'10/8/2012'
p7850
(lp7851
S'Alliance Financial Corp,NY'
p7852
ag1050
asS'11/4/2013'
p7853
(lp7854
g4858
aS'Independence Bk,Newport Beach'
p7855
asS'11/4/2011'
p7856
(lp7857
S'CKF Bancorp Inc,Danville,KY'
p7858
aS'Kentucky First Federal Bancorp'
p7859
asS'8/15/2013'
p7860
(lp7861
S'Firstbank Corp,Alma,Michigan'
p7862
aS'Mercantile Bank Corp'
p7863
asS'9/12/2005'
p7864
(lp7865
S'NorthStar Financial Corp,WA'
p7866
ag1581
asS'1/26/1996'
p7867
(lp7868
S'Charter Bancshares Inc'
p7869
ag1121
asS'4/27/1987'
p7870
(lp7871
S'Illinois Regional Bancorp,IL'
p7872
ag914
asS'4/27/1989'
p7873
(lp7874
g2755
ag292
asS'1/26/1999'
p7875
(lp7876
S'Little Falls Bancorp Inc'
p7877
ag1399
asS'1/26/1998'
p7878
(lp7879
S'Routt County National Bank'
p7880
ag390
asS'10/25/1999'
p7881
(lp7882
S'First Cmnty Bk of the Desert'
p7883
aS'Rancho Santa Fe National Bk,CA'
p7884
asS'5/2/1986'
p7885
(lp7886
S'Clinton County Bancorp,IN'
p7887
ag5627
asS'10/25/1995'
p7888
(lp7889
S'Gloucester County Bankshares'
p7890
ag214
asS'10/25/1994'
p7891
(lp7892
g1927
aS'Commercial Bancorp Inc'
p7893
asS'10/25/1991'
p7894
(lp7895
S'Valley Bancorp,Idaho Falls,ID'
p7896
ag2073
asS'1/18/1994'
p7897
(lp7898
S'Frankford Corp'
p7899
ag1008
asS'6/16/2000'
p7900
(lp7901
S'Home Bancorp Inc,Fort Wayne,IN'
p7902
ag914
asS'8/23/2000'
p7903
(lp7904
S'BankFirst Corp'
p7905
ag481
asS'8/23/2001'
p7906
(lp7907
S'Kenwood Bancorp Inc'
p7908
ag4593
asS'1/31/2001'
p7909
(lp7910
S'Lamar Capital Corp'
p7911
ag676
asS'1/31/2002'
p7912
(lp7913
S'Hometown Bank of Villa Rica,'
p7914
ag1504
asS'3/27/2006'
p7915
(lp7916
S'James Monroe Bancorp Inc'
p7917
ag1147
asS'1/9/2014'
p7918
(lp7919
S'Ouachita Bancshares Corp'
p7920
ag4060
asS'6/29/1987'
p7921
(lp7922
g201
ag1205
asS'3/29/1989'
p7923
(lp7924
S'Citizens Bank & Tr,Wartburg,TN'
p7925
ag292
asS'10/9/1987'
p7926
(lp7927
S'Florida Coml Banks Inc, Miami'
p7928
ag56
asS'12/3/2008'
p7929
(lp7930
S'Chevy Chase Bank FSB'
p7931
ag127
asS'9/29/1993'
p7932
(lp7933
S'Boulevard Bancorp Inc'
p7934
ag119
asS'8/14/1989'
p7935
(lp7936
S'First Banc Securities Inc'
p7937
aS'Integra Financial Corp'
p7938
asS'9/29/1995'
p7939
(lp7940
S'First Nationwide-NY Brchs(10)'
p7941
ag477
asS'6/5/1986'
p7942
(lp7943
S'Andrews Bk&Tr,Andrews,SC'
p7944
ag1158
asS'12/3/2007'
p7945
(lp7946
S'Millennium Bank NA-Branches(2)'
p7947
ag5888
asS'7/22/1991'
p7948
(lp7949
S'First Natl Bk of Fayetteville'
p7950
ag496
asS'7/22/1992'
p7951
(lp7952
S'First Community Bancorp Inc'
p7953
ag202
asS'10/7/1998'
p7954
(lp7955
S'PNB Financial Group'
p7956
ag4752
asS'10/10/1989'
p7957
(lp7958
S'Monticello State Bank,Iowa'
p7959
aS'Iowa National Bankshares Corp'
p7960
asS'10/7/1994'
p7961
(lp7962
S'Owego National Financial Corp'
p7963
ag1836
asS'7/22/1998'
p7964
(lp7965
S'St James Bancorp,Lutcher,LA'
p7966
ag4
asS'10/7/1996'
p7967
(lp7968
S'First Federal Savings Bank,KY'
p7969
ag970
asS'10/7/1992'
p7970
(lp7971
S'Cardinal Bancorp,Everett,PA'
p7972
ag379
asS'4/17/1996'
p7973
(lp7974
S'First Natl Bk of Clifton Forge'
p7975
ag4942
asS'4/17/1990'
p7976
(lp7977
S'Southern Bankshares,Beckley,WV'
p7978
ag2853
asS'8/26/1986'
p7979
(lp7980
S'South Suburban Bancorp,IL'
p7981
aS'Continental Illinois Corp'
p7982
asS'7/24/2000'
p7983
(lp7984
S'Community Independent Bank'
p7985
ag5428
asS'11/9/2007'
p7986
(lp7987
S'Omega Financial Corp,PA'
p7988
ag111
asS'11/9/2004'
p7989
(lp7990
S'NorCrown Bank,NJ'
p7991
ag371
asS'11/9/2005'
p7992
(lp7993
S'Gold Banc Corp Inc,Leawood,KS'
p7994
ag595
asS'2/27/1987'
p7995
(lp7996
S'Madison Natl Bank,Richmond,KY'
p7997
ag778
asS'6/10/1986'
p7998
(lp7999
S'Peoples Bk Westn PA,New Castle'
p8000
ag3271
asS'6/10/1987'
p8001
(lp8002
S'First Fidelity Bk,Rockville,MD'
p8003
ag4451
asS'6/10/1985'
p8004
(lp8005
g2087
aS'Marine Corp'
p8006
as.