(dp0
S'12/11/2003'
p1
(lp2
S'Patriot Bank Corp,Pottstown,PA'
p3
aS'Susquehanna Bancshares Inc'
p4
asS'1/14/2009'
p5
(lp6
S'Apple Valley Bank & Trust Co'
p7
aS'New England Bancshares Inc,CT'
p8
asS'3/4/2004'
p9
(lp10
S'Liberty National Bank,TX'
p11
aS'First Finl Bankshares Inc,TX'
p12
asS'3/4/2000'
p13
(lp14
S'Commerce Natl,Winter Park,FL'
p15
aS'Wachovia Corp,Winston-Salem,NC'
p16
asS'4/22/1987'
p17
(lp18
S'First Springfield National,TN'
p19
aS'Dominion Bankshares,Roanoke,VA'
p20
asS'3/5/2004'
p21
(lp22
S'North Bancorp,Gaylord,MI'
p23
aS'Independent Bank Corp'
p24
asS'10/6/1998'
p25
(lp26
S'Mt Vernon Bancshares Inc,KY'
p27
aS'Premier Finl Bancorp,WV'
p28
asS'3/5/2001'
p29
(lp30
S'James River Bankshares Inc,VA'
p31
aS'First Virginia Banks Inc,VA'
p32
asS'3/5/2003'
p33
(lp34
S'Dallas Bancshares Corp'
p35
aS'Prosperity Bancshares Inc,TX'
p36
asS'10/16/1989'
p37
(lp38
S'Central of Illinois Inc'
p39
aS'AMCORE Financial Inc'
p40
asS'10/16/1986'
p41
(lp42
S'Granite Svg Bk&Trust,Barre,VT'
p43
aS'Howard Bancorp,Burlington,VT'
p44
asS'4/30/1990'
p45
(lp46
S'De Anza Holding Corp'
p47
aS'Citicorp'
p48
asS'10/16/1984'
p49
(lp50
S'City National Bancshares Inc,'
p51
aS'First Commerce,New Orleans,LA'
p52
asS'10/16/1985'
p53
(lp54
S'Citizens DeKalb Bk,Clarkston'
p55
aS'First Union Corp,Charlotte,NC'
p56
asS'8/4/2014'
p57
(lp58
S'NB&T Financial Group Inc'
p59
aS'Peoples Bancorp,Marietta,OH'
p60
asS'11/12/2003'
p61
(lp62
S'Midstate Bancorp Inc,Felton,DE'
p63
aS'Shore Bancshares Inc'
p64
asS'9/2/1987'
p65
(lp66
S'First Place Financial Corp'
p67
aS'Magna Group Inc,St. Louis,MO'
p68
asS'9/2/1986'
p69
(lp70
S'Third Natl Corp,Nashville,TN'
p71
aS'SunTrust Banks Inc,Atlanta,GA'
p72
asS'11/5/2003'
p73
(lp74
S'FNB Bancshares Inc,SC'
p75
aS'American Cmnty Bancshares Inc'
p76
asS'5/28/2002'
p77
(lp78
S'Palm Beach National Holding Co'
p79
aS'Colonial BancGroup Inc'
p80
asS'5/28/2003'
p81
(lp82
S'High Country Financial Corp,NC'
p83
aS'Yadkin Valley Bank & Trust Co'
p84
asS'5/28/2008'
p85
(lp86
S'Service 1st Bancorp,CA'
p87
aS'Central Valley Community'
p88
asS'9/22/1999'
p89
(lp90
S'Pacific Bank NA,CA'
p91
aS'City National Corp'
p92
asS'9/22/1998'
p93
(lp94
S'Community Bank of Naples'
p95
aS'Alabama Natl BanCorp,AL'
p96
asS'9/22/1997'
p97
(lp98
S'Pacific Bay Bank,San Pablo,CA'
p99
aS'First Banks America Inc,TX'
p100
asS'9/22/1995'
p101
(lp102
S'Weatherford Natl Bankshares'
p103
ag12
asS'9/22/1994'
p104
(lp105
S'Community Bancshares Inc,TN'
p106
aS'First Tennessee National Corp'
p107
asS'8/9/2010'
p108
(lp109
S'Comm Bancorp Inc'
p110
aS'FNB Corp,Naples,Hermitage,PA'
p111
asS'12/8/2005'
p112
(lp113
S'DeKalb Bankshares Inc,SC'
p114
aS'First Community Corp'
p115
asS'1/16/1992'
p116
(lp117
S'Bank Shares Inc'
p118
aS'First Bank Sys,Minneapolis,MN'
p119
asS'3/6/2000'
p120
(lp121
S'North Coast Bank,Windsor,CA'
p122
aS'American River Holdings,CA'
p123
asS'3/6/2005'
p124
(lp125
S'Hibernia Corp,New Orleans,LA'
p126
aS'Capital One Financial Corp'
p127
asS'3/6/2006'
p128
(lp129
S'Kensington Bankshares Inc,FL'
p130
aS'Banc Corp,Birmingham,Alabama'
p131
asS'3/6/2009'
p132
(lp133
S'Discovery Bancorp'
p134
aS'CommerceWest Bank NA'
p135
asS'1/18/2011'
p136
(lp137
S'Sterling Bancshares Inc'
p138
aS'Comerica Inc'
p139
asS'11/24/1993'
p140
(lp141
S'Central State Bank,High Pt,NC'
p142
aS'First Bancorp,Troy,NC'
p143
asS'11/24/1992'
p144
(lp145
S'ECSB Holding Co Inc'
p146
aS'Central Bancshares of South,AL'
p147
asS'10/29/2014'
p148
(lp149
S'ESB Financial Corp'
p150
aS'WesBanco Inc,Wheeling,WV'
p151
asS'10/29/2012'
p152
(lp153
S'First Place Bank'
p154
aS'Talmer Bancorp Inc,Troy,MI'
p155
asS'9/28/1987'
p156
(lp157
S'Freedom Finl, Charlestown, IN'
p158
aS'Liberty Natl Bancorp,Kentucky'
p159
asS'8/31/2010'
p160
(lp161
S'Southwest Capital Bank NA'
p162
aS'Stonegate Bank,Fort'
p163
asS'8/31/2011'
p164
(lp165
S'Beach Business Bank,CA'
p166
aS'First PacTrust Bancorp Inc'
p167
asS'10/5/1994'
p168
(lp169
S'University Bank & Trust Co,CA'
p170
ag139
asS'3/5/2007'
p171
(lp172
S'Acuity Bank,Sheboygan,WI'
p173
aS'First Manitowoc Bancorp Inc'
p174
asS'10/5/1993'
p175
(lp176
S'Western Indiana Bancorp'
p177
aS'Old Natl Bancorp,Evansville,IN'
p178
asS'2/11/2004'
p179
(lp180
S'Issaquah Bancshares,WA'
p181
aS'Cascade Financial Corp'
p182
asS'9/4/1990'
p183
(lp184
S'Northwestern Bank Corp,MI'
p185
aS'First Michigan Bank Corp,MI'
p186
asS'6/18/1998'
p187
(lp188
S'NSS Bancorp,Norwalk,CT'
p189
aS'Summit Bancorp,Princeton,NJ'
p190
asS'7/19/2012'
p191
(lp192
S'Fidelity Bancorp,Pittsburgh,PA'
p193
ag151
asS'2/10/1999'
p194
(lp195
S'Northeast Bancorp,MD'
p196
aS'Sterling Financial Corp'
p197
asS'2/10/1998'
p198
(lp199
S'Rancho Vista Natl Bk,Vista,CA'
p200
aS'Bank of Commerce,San Diego,CA'
p201
asS'7/24/1987'
p202
(lp203
S'Marine Corp, Milwaukee,WI'
p204
aS'BANC ONE Corp,Columbus,Ohio'
p205
asS'4/7/2003'
p206
(lp207
S'Sequioa Bancshares,Bethesda,MD'
p208
aS'United Bankshares Inc,WV'
p209
asS'6/24/2005'
p210
(lp211
S'Franklin Bank,Nutley,NJ'
p212
aS'Interchange Finl Svcs,NJ'
p213
asS'2/10/1995'
p214
(lp215
S'Delaware National Bankshares'
p216
aS'Fulton Financial Corp'
p217
asS'2/10/1994'
p218
(lp219
S'First Southeast Banking Corp'
p220
aS'Firstar Corp,Milwaukee, Wi'
p221
asS'4/7/2009'
p222
(lp223
S'Natl City Corp,OH-Branch Bkg'
p224
aS'First Niagara Finl Group Inc'
p225
asS'6/28/1985'
p226
(lp227
S'Calhoun First National Bank'
p228
aS'First RR & Banking,Augusta,GA'
p229
asS'10/20/1993'
p230
(lp231
S'Lincolnland Bancshares Inc'
p232
aS'Ambanc Corp,Vincennes,Indiana'
p233
asS'10/20/1994'
p234
(lp235
S'First Commercial Bancshares,LA'
p236
aS'Regions Financial Corp,AL'
p237
asS'10/20/1995'
p238
(lp239
S'Palmer National Bancorp Inc'
p240
aS'George Mason Bankshares Inc'
p241
asS'10/20/1997'
p242
(lp243
S'First Republic Bancshares,LA'
p244
aS'First United Bancshares Inc,AR'
p245
asS'10/20/1998'
p246
(lp247
S'Big Sky Wstn Bk,Big Sky,MT'
p248
aS'Glacier Bancorp Inc,MT'
p249
asS'8/27/1997'
p250
(lp251
S'Community Bancorp,Pullman,WA'
p252
aS'United Security Bancorp,WA'
p253
asS'8/27/1993'
p254
(lp255
S'First Peoples National Bank,'
p256
aS'First Fidelity Bancorp,NJ'
p257
asS'8/27/1992'
p258
(lp259
S'First Dubuque Corp,Dubuque,IA'
p260
aS'Hawkeye Bancorp'
p261
asS'3/18/1987'
p262
(lp263
S'Norstar Bancorp,Albany,NY'
p264
aS'Fleet Finl Group,Providence,RI'
p265
asS'7/31/2003'
p266
(lp267
S'Cmnty Bank of Grants Pass,OR'
p268
aS'Cascade Bancorp,Bend,OR'
p269
asS'7/31/2001'
p270
(lp271
S'Natl Bancshares Corp of TX,TX'
p272
aS'Intl Bancshares Corp,TX'
p273
asS'12/14/1999'
p274
(lp275
S'UB Bancshares Inc,Bucyrus,OH'
p276
aS'Park National Corp,OH'
p277
asS'12/14/1998'
p278
(lp279
S'First Western Bancorp Inc,PA'
p280
aS'Sky Financial Group Inc,'
p281
asS'3/11/2003'
p282
(lp283
S'RVB Bancshares Inc,AR'
p284
aS'Bank of the Ozarks Inc'
p285
asS'12/14/1993'
p286
(lp287
S'National Bank of Commerce'
p288
aS'Premier Bancorp,Baton Rouge,LA'
p289
asS'12/14/1994'
p290
(lp291
S'Planters Bank & Trust Co,AR'
p292
aS'Union Planters Corp,Memphis,TN'
p293
asS'3/10/2008'
p294
(lp295
S'River City Bank,VA'
p296
aS'Village Bk & Tr Finl Corp'
p297
asS'9/1/1993'
p298
(lp299
S'Penn Central Bancorp Inc'
p300
aS'Omega Financial Corp,PA'
p301
asS'4/29/2014'
p302
(lp303
S'Guernsey Bancorp Inc,Ohio'
p304
aS'First Finl Bancorp,Ohio'
p305
asS'10/28/1986'
p306
(lp307
S'Nevada Natl Bancorp,Reno,NV'
p308
aS'Security Pacific,Los Angeles'
p309
asS'2/28/1992'
p310
(lp311
S'Security Pacific Natl-33 Brchs'
p312
aS'Union Bank,San Francisco,CA'
p313
asS'2/28/1990'
p314
(lp315
S'First Interstate Bancorp-3 NM'
p316
aS'United New Mexico Financial'
p317
asS'12/5/1984'
p318
(lp319
S'Heritage Bancorporation, NJ'
p320
aS'First National State Bancorp'
p321
asS'3/26/1986'
p322
(lp323
S'Security Natl,Consumer Svgs,MA'
p324
aS'Bank of New England,Boston,MA'
p325
asS'7/30/1993'
p326
(lp327
S'First AmFed Corp,Huntsville,AL'
p328
ag80
asS'12/27/1985'
p329
(lp330
S'Dartmouth National Corp of NH'
p331
aS'Indian Head Banks Inc, Nashua'
p332
asS'7/30/1998'
p333
(lp334
S'First Guaranty Bank,Hammond'
p335
aS'Hibernia Corp,New Orleans,LA'
p336
asS'7/30/1999'
p337
(lp338
S'Letchworth Independent Bancshs'
p339
aS'Tompkins TrustCo Inc,NY'
p340
asS'8/1/1997'
p341
(lp342
S'Colonial Bkg Co,Grants Pass,OR'
p343
aS'VRB Bancorp, Rogue River, OR'
p344
asS'8/1/1994'
p345
(lp346
S'Western Community Bank,CA'
p347
aS'Bank of San Bernardino'
p348
asS'6/14/2001'
p349
(lp350
S'Promistar Financial Corp'
p351
aS'FNB Corp,Hermitage,PA'
p352
asS'3/21/1994'
p353
(lp354
S'Fayette County Bancshares,GA'
p355
aS'Bank South Corp,Atlanta,GA'
p356
asS'6/14/2013'
p357
(lp358
S'Wilton Bank,Wilton,CT'
p359
aS'Bank of New Canaan'
p360
asS'6/14/2012'
p361
(lp362
S'Marathon State Bank,Marathon,W'
p363
aS'PSB Hldg,Wausau,WI'
p364
asS'7/12/2013'
p365
(lp366
S'Heritage Community Bank,NJ'
p367
aS'First Bank,Hamilton,New Jersey'
p368
asS'4/5/1994'
p369
(lp370
S'Lockwood Banc Group Inc'
p371
ag139
asS'9/13/1996'
p372
(lp373
S'Midland Bancorporation Inc,NJ'
p374
aS'Valley National Bancorp,NJ'
p375
asS'9/13/1995'
p376
(lp377
S'Centerpoint Bank,Bedford,NH'
p378
aS'Community Bankshares,NH'
p379
asS'9/13/1993'
p380
(lp381
S'Peoples Bank of Western'
p382
aS'First Commonwealth Finl Corp'
p383
asS'2/25/2014'
p384
(lp385
S'Peoples Banking Co'
p386
aS'Southern Missouri Bancorp Inc'
p387
asS'4/4/2014'
p388
(lp389
S'Ohio Heritage Bancorp Inc'
p390
ag60
asS'2/12/2001'
p391
(lp392
S'Euro Amer Bank,Uniondale,NY'
p393
aS'Citigroup Inc'
p394
asS'7/6/2005'
p395
(lp396
S'Amegy Bancorp Inc,TX'
p397
aS'Zions Bancorp'
p398
asS'3/13/1997'
p399
(lp400
S'Fallbrook Natl Bk,Fallbrook,CA'
p401
ag201
asS'3/13/1996'
p402
(lp403
S'Rockdale Community Bank,GA'
p404
ag237
asS'3/13/1990'
p405
(lp406
S'Plainfield National Bank'
p407
aS'First Midwest Bancorp Inc'
p408
asS'6/15/1989'
p409
(lp410
S'Southwest Financial Corp'
p411
aS'Fourth Financial Corp'
p412
asS'6/15/1988'
p413
(lp414
S'Quad Cities 1st,Rock Island'
p415
aS'First of Amer Bk,Kalamazoo,MI'
p416
asS'12/4/1992'
p417
(lp418
S'Ohio Bancorp'
p419
aS'PNC Financial,Pittsburgh,PA'
p420
asS'11/12/2007'
p421
(lp422
S'Sleepy Hollow Bancorp Inc'
p423
aS'Tompkins Financial Corp'
p424
asS'4/1/1998'
p425
(lp426
S'CFX Corp,Keene,NH-Branches(5)'
p427
aS'First Essex Bancorp Inc,MA'
p428
asS'4/1/1999'
p429
(lp430
S'CNBT Bancshares Inc,Bellaire'
p431
aS'SouthTrust Corp,Birmingham,AL'
p432
asS'4/1/1996'
p433
(lp434
S'St Bernard Bank & Trust Co'
p435
ag336
asS'4/1/1994'
p436
(lp437
S'Ithaca Bancorp Inc'
p438
aS'First Empire State Corp,NY'
p439
asS'7/16/2003'
p440
(lp441
S'GLB Bancorp Inc,Mentor,OH'
p442
ag281
asS'7/16/2002'
p443
(lp444
S'Carolina Community Bankshares'
p445
ag143
asS'6/9/2003'
p446
(lp447
S'Grange National Banc Corp,PA'
p448
aS'Community Bank System Inc'
p449
asS'7/16/2004'
p450
(lp451
S'Riggs Natl Corp,Washington,DC'
p452
aS'PNC Finl Svcs Grp Inc'
p453
asS'7/16/2009'
p454
(lp455
S'1st Pacific Bk of CA,LaJolla,'
p456
aS'First Business Bank NA,CA'
p457
asS'6/9/2008'
p458
(lp459
S'Parish National Corp'
p460
aS'Whitney Holding Corp,Louisiana'
p461
asS'12/31/2003'
p462
(lp463
S'PCB Bancorp,Johnson City,TN'
p464
aS'First Cmnty Bancshares Inc'
p465
asS'12/31/2005'
p466
(lp467
S'Wshington Mutual-Brs(2),MT'
p468
aS'Northway Financial Inc'
p469
asS'5/16/1988'
p470
(lp471
S'Point West Bancorp,Sacramento'
p472
aS'First Interstate Bancorp,CA'
p473
asS'6/27/1991'
p474
(lp475
S'Gainer Corp'
p476
aS'NBD Bancorp,Detroit,Michigan'
p477
asS'12/31/2008'
p478
(lp479
S'Abigail Adams National Bancorp'
p480
ag28
asS'6/27/1996'
p481
(lp482
S'Financial Bancshares Inc,MO'
p483
ag293
asS'6/27/1994'
p484
(lp485
S'Metro Bancshares Inc'
p486
aS'North Fork Bancorp,Melville,NY'
p487
asS'7/28/1999'
p488
(lp489
S'Premier BancShares,Atlanta,GA'
p490
aS'BB&T Corp'
p491
asS'7/28/1998'
p492
(lp493
S'Northern Lehigh Bancorp Inc,PA'
p494
aS'Harleysville National Corp,PA'
p495
asS'2/4/1986'
p496
(lp497
S'Chemung Financial,Elmira,NY'
p498
aS'Norstar Bancorp,Albany,NY'
p499
asS'2/4/1987'
p500
(lp501
S'United Bancorp of Maryland Inc'
p502
ag32
asS'7/28/1993'
p503
(lp504
S'FirstBank Group Inc'
p505
aS'Worthen Banking,Little Rock,AR'
p506
asS'9/30/2005'
p507
(lp508
S'Cavalry Bancorp Inc,Murfreesbo'
p509
aS'Pinnacle Financial Partners'
p510
asS'9/5/2000'
p511
(lp512
S'Firstier Corp'
p513
aS'Compass Bancshares Inc,AL'
p514
asS'12/1/1988'
p515
(lp516
S'Central Banking System Inc'
p517
ag309
asS'3/29/1994'
p518
(lp519
S'Planters Bank,Tunica,MS'
p520
ag107
asS'9/5/2008'
p521
(lp522
S'State of Franklin Bancshares'
p523
aS'Jefferson Bancshares Inc'
p524
asS'7/23/2001'
p525
(lp526
S'Commerce Exchange Corp'
p527
aS'Second Bancorp Inc,Warren,OH'
p528
asS'7/23/2002'
p529
(lp530
S'Trustco Holding Inc'
p531
aS'MountainBank Financial Corp'
p532
asS'11/28/1986'
p533
(lp534
S'Westamerica Bancorp,California'
p535
ag309
asS'11/28/1984'
p536
(lp537
g320
aS'United Jersey Bks,Princeton,NJ'
p538
asS'11/28/1985'
p539
(lp540
S'Lowell National Bank,Lowell,IN'
p541
aS'Indiana National Corp'
p542
asS'9/12/1996'
p543
(lp544
S'Prairie Security Bank, Yelm,'
p545
aS'First Community Financial,WA'
p546
asS'9/12/1997'
p547
(lp548
S'First National Bank Shares'
p549
aS'Commercial Federal,Omaha,NE'
p550
asS'10/23/2006'
p551
(lp552
S'St Joseph Capital Corp'
p553
ag178
asS'9/12/1991'
p554
(lp555
S'Security Bancorp,Southgate,MI'
p556
ag416
asS'2/16/1988'
p557
(lp558
S'Union Bank(Standard Chartered)'
p559
aS'California First Bank,CA'
p560
asS'10/17/1997'
p561
(lp562
S'Freedom Bancshares,Kansas'
p563
aS'MNB Bancshares Inc,KS'
p564
asS'10/17/1994'
p565
(lp566
S'American Union Bank,Union,NJ'
p567
ag375
asS'10/10/1991'
p568
(lp569
S'Liberty Bankshares,WV'
p570
ag209
asS'1/27/1988'
p571
(lp572
S'First Kentucky National Corp'
p573
aS'National City Corp,Cleveland'
p574
asS'7/22/1986'
p575
(lp576
S'Merchants Bancorp,Allentown,PA'
p577
aS'Fidelcor Inc,Philadelphia,PA'
p578
asS'7/22/1987'
p579
(lp580
S'West Florida Bank,Pensacola'
p581
aS'Southeast Banking Corp,Miami'
p582
asS'10/10/1995'
p583
(lp584
S'Meridian Bancorp Inc'
p585
aS'CoreStates Financial Corp,PA'
p586
asS'5/13/2013'
p587
(lp588
S'CFS Bancorp Inc'
p589
aS'First Merchants Corp'
p590
asS'7/22/1988'
p591
(lp592
S'United Southern Corp'
p593
ag293
asS'6/17/2004'
p594
(lp595
S'First Federal Bank of LA'
p596
aS'First Allen Parish Bancorp Inc'
p597
asS'1/27/1987'
p598
(lp599
S'First United Financial Svcs,IL'
p600
aS'First Chicago Corp,Illinois'
p601
asS'1/27/1986'
p602
(lp603
S'Patriot Bancorp,Boston,MA'
p604
aS'Conifer/Essex Group Inc'
p605
asS'6/17/2001'
p606
(lp607
S'Ledger Capital Corp'
p608
aS'Anchor BanCorp Wisconsin Inc'
p609
asS'5/8/1998'
p610
(lp611
S'Kersey Bancorp Inc'
p612
ag398
asS'5/8/1992'
p613
(lp614
S'City National Bancshares Inc'
p615
ag147
asS'8/26/1992'
p616
(lp617
S'First City Inc'
p618
aS'First Commercial Corp,Arkansas'
p619
asS'8/26/1993'
p620
(lp621
S'Peoples Bancorp of Worcester'
p622
aS'Shawmut National Corp'
p623
asS'8/26/1991'
p624
(lp625
S'Northwestern National Bank,WA'
p626
aS'Puget Sound Bancorp,Tacoma,WA'
p627
asS'2/23/2000'
p628
(lp629
S'Skylands Financial Corp'
p630
ag217
asS'8/26/1994'
p631
(lp632
S'Superior Financial Corp,MI'
p633
ag186
asS'8/26/1998'
p634
(lp635
S'MainStreet Financial Corp'
p636
aS'BB&T Corp.'
p637
asS'7/2/2001'
p638
(lp639
S'Rusk County Bancshares Inc'
p640
aS'Henderson Citizens Bancshares'
p641
asS'7/2/2003'
p642
(lp643
S'Advantage National Bancorp,IL'
p644
aS'Wintrust Financial Corp,IL'
p645
asS'7/2/2002'
p646
(lp647
S'San Juan Bancshares Inc'
p648
aS'Texas Regional Bancshares,TX'
p649
asS'7/2/2004'
p650
(lp651
S'Jackson Federal Bank,CA'
p652
aS'UnionBanCal Corp,CA'
p653
asS'7/2/2007'
p654
(lp655
S'First Mutual Bancshares Inc'
p656
aS'Washington Federal Inc'
p657
asS'3/23/2006'
p658
(lp659
S'NorthStar Bancshares Inc'
p660
aS'Enterprise Finl Svcs Corp'
p661
asS'1/15/1997'
p662
(lp663
S'Central & Southern Holding,GA'
p664
aS'Premier BancShares,Atlanta,GA'
p665
asS'1/15/1998'
p666
(lp667
S'Heritage Financial Services'
p668
ag408
asS'1/7/1986'
p669
(lp670
S'Commercial Bank,Bel Air, MD'
p671
ag32
asS'1/14/2015'
p672
(lp673
S'Manhattan Bancorp'
p674
aS'Plaza Bank,Irvine,California'
p675
asS'12/22/2010'
p676
(lp677
S'Whitney Holding Corp,Louisiana'
p678
aS'Hancock Holding Co'
p679
asS'4/22/1996'
p680
(lp681
S'Allegiance Banc,Bethesda,MD'
p682
aS'F&M National,Winchester,VA'
p683
asS'7/19/2007'
p684
(lp685
S'Sterling Financial Corp'
p686
ag453
asS'4/22/1998'
p687
(lp688
S'Peoples Bank,Dickson,Tennesee'
p689
aS'First American Corp,Tennessee'
p690
asS'4/22/1999'
p691
(lp692
S'Harlingen Bancshares Inc,TX'
p693
ag649
asS'10/2/2000'
p694
(lp695
S'Summit Bancorp,Princeton,NJ'
p696
aS'FleetBoston Financial Corp,MA'
p697
asS'4/4/1995'
p698
(lp699
S'Farmers & Merchants Bank,AL'
p700
ag80
asS'9/16/1985'
p701
(lp702
S'Purdue National Corp'
p703
ag205
asS'4/4/1996'
p704
(lp705
S'Navarre Bank Deposit Co,OH'
p706
aS'Citizens Bancshares Inc,OH'
p707
asS'10/16/1998'
p708
(lp709
S'Sterling Bancorp,Baltimore,MD'
p710
aS'Mason-Dixon Bancshares,MD'
p711
asS'1/29/2013'
p712
(lp713
S'Somerset Hills Bancorp'
p714
aS'Lakeland Bancorp Inc'
p715
asS'10/16/1997'
p716
(lp717
S'Guaranty State Bancorp,NC'
p718
aS'Triangle Bancorp,Raleigh,NC'
p719
asS'3/19/1998'
p720
(lp721
S'Bank of South Windsor,Windsor'
p722
aS'New England Cmnty Bancorp,CT'
p723
asS'9/10/1999'
p724
(lp725
g668
ag178
asS'4/20/2006'
p726
(lp727
S'Rancho Bank'
p728
aS'Vineyard National Bancorp'
p729
asS'4/20/2005'
p730
(lp731
S'Horizon Capital Bk,Houston,TX'
p732
aS'Cullen/Frost Bankers Inc'
p733
asS'4/20/2004'
p734
(lp735
S'Sun Bancorp Inc,Selinsgrove,PA'
p736
ag301
asS'8/21/2000'
p737
(lp738
g431
aS'BOK Financial Corp'
p739
asS'5/1/1986'
p740
(lp741
S'Horizon Bancorp,Morristown,NJ'
p742
aS'Chemical Banking Corp'
p743
asS'8/21/2003'
p744
(lp745
S'United National Bancorp,NJ'
p746
ag453
asS'6/23/1986'
p747
(lp748
S'Peoples Liberty Banc,Covington'
p749
aS'Huntington Bancshares Inc,OH'
p750
asS'9/10/1997'
p751
(lp752
S'First Central Bank,Florida'
p753
ag80
asS'10/15/1997'
p754
(lp755
S'Upper Valley Bancorp Inc'
p756
aS'First Jermyn Corp,Jermyn,PA'
p757
asS'10/15/1991'
p758
(lp759
S'First Interstate of ND Inc'
p760
aS'Community First Bankshares,ND'
p761
asS'11/18/1992'
p762
(lp763
S'VerBanc Financial Corp'
p764
aS'Chittenden Corp,Burlington,VT'
p765
asS'1/29/1988'
p766
(lp767
S'OmniBank of CT Inc,Clinton'
p768
aS'NESB Corp'
p769
asS'9/22/1988'
p770
(lp771
S'Bank of Delaware, Wilmington'
p772
ag420
asS'11/18/1997'
p773
(lp774
S'Raymondville Bancorp Inc,TX'
p775
ag649
asS'11/18/1994'
p776
(lp777
S'Greensboro National Bank'
p778
aS'Mutual Community Savings Bank'
p779
asS'5/27/2015'
p780
(lp781
S'Bank of America NA-Branches(5)'
p782
ag111
asS'9/22/1986'
p783
(lp784
S'North American Bancorp Inc'
p785
aS'Bank of New York Co Inc,NY'
p786
asS'8/9/2005'
p787
(lp788
S'Bridgeport Financial Corp,TX'
p789
ag12
asS'8/12/2003'
p790
(lp791
S'California Independent Bancorp'
p792
aS'Humboldt Bancorp,Eureka,CA'
p793
asS'9/20/2002'
p794
(lp795
S'Bank of Coronado,Coronado,CA'
p796
aS'First Community Bancorp Inc'
p797
asS'9/20/2000'
p798
(lp799
S'American Bank,Houston,TX'
p800
ag461
asS'9/20/2006'
p801
(lp802
S'Main Street Trust Inc,Il'
p803
aS'First Busey Corp,Urbana,Il'
p804
asS'3/17/1994'
p805
(lp806
S'First Community Bancshares,GA'
p807
ag237
asS'3/17/1997'
p808
(lp809
S'Bank Corp of Georgia,Macon,GA'
p810
aS'Century South Banks Inc,GA'
p811
asS'1/19/2012'
p812
(lp813
S'The Bank Arlington,Texas'
p814
aS'Prosperity Bancshares Inc'
p815
asS'2/24/2005'
p816
(lp817
S'Tarpon Coast Bancorp Inc,FL'
p818
ag804
asS'10/26/2005'
p819
(lp820
S'HFS Bank,FSB,Hobart,Indiana'
p821
aS'MainSource Finl Grp Inc'
p822
asS'6/3/2002'
p823
(lp824
S'Fortress Bancshares Inc,WI'
p825
aS'Merchants,Mnfr Bancorp Inc,WI'
p826
asS'10/26/2004'
p827
(lp828
S'FirstCapital Bankers Inc,Texas'
p829
ag36
asS'10/4/2012'
p830
(lp831
S'Genala Banc Inc'
p832
ag285
asS'4/6/2005'
p833
(lp834
S'First Capital Bank Hldg.FL'
p835
aS'Coastal Banking Co Inc,SC'
p836
asS'4/6/2006'
p837
(lp838
S'Port City Capital Bank, NC'
p839
aS'Crescent Finl Corp,Cary,NC'
p840
asS'10/26/2000'
p841
(lp842
S'Capital Holdings Inc'
p843
aS'Fifth Third Bancorp,OH'
p844
asS'1/18/1985'
p845
(lp846
S'Michigan National Corp'
p847
ag139
asS'5/29/2007'
p848
(lp849
S'Bus First Natl Bk,CA'
p850
aS'Heritage Oaks Bancorp'
p851
asS'5/22/2006'
p852
(lp853
S'BWC Finl Corp,Walnut Creek,CA'
p854
aS'First Republic Bank,California'
p855
asS'9/18/2012'
p856
(lp857
S'HPK Financial Corp'
p858
aS'Wintrust Financial Corp'
p859
asS'11/29/1994'
p860
(lp861
S'Financial Holdings Inc'
p862
aS'Mountain Parks Finl Corp,MN'
p863
asS'5/1/1989'
p864
(lp865
S'Sesser Bancorporation Inc'
p866
ag68
asS'11/29/1993'
p867
(lp868
S'Vinings Bank & Trust,Cobb,GA'
p869
aS'Summit National Bank'
p870
asS'11/29/1990'
p871
(lp872
S'First Colony Bancshares Inc,OH'
p873
aS'Prime Bancshares,Decatur,GA'
p874
asS'1/25/1985'
p875
(lp876
S'CharterCorp of Kansas City'
p877
aS"Boatmen's Bancshares,St Louis"
p878
asS'2/26/2013'
p879
(lp880
S'Wheatland Bankshares Inc'
p881
ag249
asS'9/4/1985'
p882
(lp883
S'Commonwealth Trust Bancorp'
p884
ag750
asS'9/4/1984'
p885
(lp886
S'Citizens Trust Co,Virginia'
p887
aS'Bank of Virginia Co'
p888
asS'11/11/2009'
p889
(lp890
S'First Bank-Asset Based Loan'
p891
aS'FirstMerit Corp'
p892
asS'8/8/2002'
p893
(lp894
S'Warren Bancorp Inc'
p895
aS'Banknorth Group Inc,ME'
p896
asS'2/10/1986'
p897
(lp898
S'Mid-Continental Bancorp,WI'
p899
aS'First Interstate Corp of WI'
p900
asS'5/16/2007'
p901
(lp902
S'East Penn Financial Corp'
p903
ag495
asS'5/16/2006'
p904
(lp905
S'Community Bancorp Inc'
p906
ag797
asS'5/16/2002'
p907
(lp908
S'Liberty Bancorp,Avenel,NJ'
p909
aS'New Southern Bank,Macon,GA'
p910
asS'5/16/2000'
p911
(lp912
S'Northfield Bancorp Inc'
p913
aS'Patapsco Bancorp Inc'
p914
asS'3/18/1999'
p915
(lp916
S'Pinnacle Banc Grp,Oak Brook,IL'
p917
aS'Old Kent Finl Corp,Michigan'
p918
asS'3/18/1991'
p919
(lp920
S'One Natl Bk,AR-8 Branches'
p921
ag506
asS'3/18/1992'
p922
(lp923
S'INB Financial Corp'
p924
ag477
asS'3/18/1993'
p925
(lp926
S'United Bank NA,Lancaster,TX'
p927
aS'Kilgore First National BK,TX'
p928
asS'3/18/1997'
p929
(lp930
S'Peoples Bk of Elkton,Elkton,MD'
p931
ag217
asS'10/14/2002'
p932
(lp933
S'First Bank of Central Jersey'
p934
aS'Synergy Financial Group Inc'
p935
asS'10/14/2003'
p936
(lp937
S'West Michigan Financial Corp'
p938
aS'Fentura Financial,Fenton,MI'
p939
asS'11/19/2004'
p940
(lp941
S'Gold Country Financial,CA'
p942
aS'Western Sierra Bancorp,CA'
p943
asS'11/19/2001'
p944
(lp945
S'Richfield State Agency Inc'
p946
aS'Marshall & Ilsley Corp,WI'
p947
asS'5/22/1997'
p948
(lp949
S'Sun State Capital,Las Vegas,NV'
p950
ag398
asS'5/22/1996'
p951
(lp952
S'Central Jersey Financial Corp'
p953
ag190
asS'5/22/1995'
p954
(lp955
S'Laurel Bancorp,Laurel,Maryland'
p956
aS'FCNB Corp,Frederick,MD'
p957
asS'11/1/1996'
p958
(lp959
S'Citi-Bancshares Inc'
p960
ag750
asS'11/17/1988'
p961
(lp962
S'Landmark Bank,La Habra,CA'
p963
aS'Eldorado Bancorp,Tustin,CA'
p964
asS'5/22/1992'
p965
(lp966
S'Mission Hills Bancshares Inc'
p967
ag412
asS'11/17/1986'
p968
(lp969
S'First Bank,Troy,North Carolina'
p970
aS'Commonwealth Bancshares Corp'
p971
asS'5/22/1998'
p972
(lp973
S'1st Bancorp Vienna Inc,Vienna'
p974
aS'Natl City Bancshares Inc,IN'
p975
asS'4/29/2004'
p976
(lp977
S'GNB Bancshares Inc,TX'
p978
aS'Texas United Bancshares,TX'
p979
asS'4/29/2006'
p980
(lp981
S'Community Bancshares Inc'
p982
ag131
asS'4/29/2002'
p983
(lp984
S'First National Bk,San Diego,CA'
p985
ag797
asS'10/9/2006'
p986
(lp987
S'Mercantile Bankshares Corp,MD'
p988
ag453
asS'12/5/1994'
p989
(lp990
S'TC Bankshares Inc'
p991
aS'Mercantile Bancorp,St Louis,MO'
p992
asS'12/5/1995'
p993
(lp994
S'American City Bancorp'
p995
ag237
asS'12/5/1997'
p996
(lp997
S'Capital State Bank Inc,WV'
p998
aS'South Branch Valley Bancorp,WV'
p999
asS'8/1/1989'
p1000
(lp1001
S'Investors Trust Financial Corp'
p1002
aS'Barnett Banks,Jacksonville,FL'
p1003
asS'3/15/1999'
p1004
(lp1005
S'Farmers State Bank,Illinois'
p1006
aS'Illini Corp,Springfield,IL'
p1007
asS'1/6/1994'
p1008
(lp1009
S'Hallmark Bank & Trust Co,VA'
p1010
ag683
asS'1/6/1995'
p1011
(lp1012
S'Shawnee Financial Services'
p1013
aS'Keystone Finl,Harrisburg,PA'
p1014
asS'12/27/1995'
p1015
(lp1016
S'Bank Land Co'
p1017
aS'Vectra Banking Corp,Denver,CO'
p1018
asS'1/6/1997'
p1019
(lp1020
S'Island National Bank & Tr,FL'
p1021
aS'1st United Bancorp,FL'
p1022
asS'8/1/1985'
p1023
(lp1024
S'First Connecticut Bancorp'
p1025
ag265
asS'2/5/1996'
p1026
(lp1027
S'Southwest Banks Inc'
p1028
ag352
asS'3/15/1990'
p1029
(lp1030
S'Independent Banks of Virginia'
p1031
aS'Signet Bkg Corp,Richmond,VA'
p1032
asS'2/16/1999'
p1033
(lp1034
S'Exchange Bank of Kingstree,Sc'
p1035
aS'First Citizens Bancorp SC'
p1036
asS'2/2/1995'
p1037
(lp1038
S'New Era Bank'
p1039
aS'United National Bancorp,NJ'
p1040
asS'2/16/1993'
p1041
(lp1042
S'South Alabama Bancorp,AL'
p1043
aS'Mobile National Corp'
p1044
asS'2/2/1998'
p1045
(lp1046
S'Seminole Bank,Seminole,FL'
p1047
ag352
asS'6/14/2004'
p1048
(lp1049
S'Town Bankshares Ltd'
p1050
ag645
asS'6/14/2005'
p1051
(lp1052
S'CNB Bancorp,Gloversville,NY'
p1053
aS'NBT Bancorp Inc'
p1054
asS'2/16/1996'
p1055
(lp1056
S'Vancouver Bancorp,WA'
p1057
aS'West Coast Bancorp'
p1058
asS'2/9/1987'
p1059
(lp1060
S'BancServe Group,Rockford,IL'
p1061
ag416
asS'2/16/1994'
p1062
(lp1063
S'Lincoln Bank South'
p1064
aS'First Commerce Bancshares Inc'
p1065
asS'4/5/1984'
p1066
(lp1067
S'IntraWest Financial,Denver,Co'
p1068
aS'Affiliated Bankshares of CO'
p1069
asS'9/7/1989'
p1070
(lp1071
S'Northern Virginia Banking Corp'
p1072
aS'Crestar Finl Corp,Richmond,VA'
p1073
asS'9/10/1987'
p1074
(lp1075
S'Greene County Bancshares Inc'
p1076
ag20
asS'1/28/2015'
p1077
(lp1078
S'Merchants & Southern Bank'
p1079
aS'Ameris Bancorp'
p1080
asS'3/30/1989'
p1081
(lp1082
S'Citizens & Southern Georgia'
p1083
aS'NCNB Corp,Charlotte,NC'
p1084
asS'10/26/2015'
p1085
(lp1086
S'River Valley Bancorp'
p1087
aS'German American Bancorp,IN'
p1088
asS'1/8/2014'
p1089
(lp1090
S'United Bancorp Inc'
p1091
aS'Old National Bancorp'
p1092
asS'9/7/1987'
p1093
(lp1094
S'Heritage Bancorp,Glenville,WV'
p1095
ag209
asS'6/15/1995'
p1096
(lp1097
S'LaPorte State Bank,La Porte,TX'
p1098
aS'Charter Bancshares Inc'
p1099
asS'6/15/1990'
p1100
(lp1101
g371
aS'Michigan National Corp'
p1102
asS'6/21/2012'
p1103
(lp1104
S'Acacia Federal Savings Bank'
p1105
aS'Customers Bancorp Inc'
p1106
asS'3/2/2015'
p1107
(lp1108
S'Square 1 Financial Inc'
p1109
aS'PacWest Bancorp'
p1110
asS'6/15/1998'
p1111
(lp1112
S'Whatcom State Bancorp Inc'
p1113
aS'First Svgs Bk of WA Bancorp'
p1114
asS'12/17/2007'
p1115
(lp1116
S'IBT Bancorp Inc,Pennsylvania'
p1117
aS'S&T Bancorp Inc,Indiana,PA'
p1118
asS'7/17/1992'
p1119
(lp1120
S'MNC Financial Inc'
p1121
aS'NationsBank Corp,Charlotte,NC'
p1122
asS'7/17/1998'
p1123
(lp1124
S'Bullsboro BancShares,GA'
p1125
ag237
asS'12/17/2004'
p1126
(lp1127
S'Red Oak Bank,Morristown,NJ'
p1128
aS'Center Bancorp Inc,Union,NJ'
p1129
asS'4/1/1988'
p1130
(lp1131
S'Universal Corp'
p1132
ag205
asS'4/1/1986'
p1133
(lp1134
S'Horry County Natl Bk, SC'
p1135
aS'Southern Natl,Winston-Salem,NC'
p1136
asS'7/16/2010'
p1137
(lp1138
S'The Bank of Currituck-Banking'
p1139
aS'TowneBank,Portsmouth,Virginia'
p1140
asS'6/18/1997'
p1141
(lp1142
S'Ballston Bancorp,Arlington,VA'
p1143
aS'Abigail Adams National Bancorp'
p1144
asS'6/27/1988'
p1145
(lp1146
S'Eastern Shore National Bank'
p1147
aS'Mercantile Bankshares Corp,MD'
p1148
asS'6/27/1989'
p1149
(lp1150
S'Central Financial Group Inc'
p1151
aS'Marine Corp,Springfield,IL'
p1152
asS'6/27/1985'
p1153
(lp1154
S'Fidelity Natl Finl,Baton Rouge'
p1155
ag336
asS'6/27/1986'
p1156
(lp1157
S'Independent Community Banks,FL'
p1158
aS'Citizens & Southern Georgia'
p1159
asS'9/17/1997'
p1160
(lp1161
S'Community Svgs Bk,Bristol,CT'
p1162
ag723
asS'9/17/1996'
p1163
(lp1164
S'Central Bancorp,Fort Forth,TX'
p1165
aS'Norwest Corp,Minneapolis,MN'
p1166
asS'10/1/1986'
p1167
(lp1168
S'Bank of Greer,South Carolina'
p1169
aS'United Carolina Bancshares'
p1170
asS'2/4/1997'
p1171
(lp1172
S'Penncore Finl Svcs,Newtown,PA'
p1173
aS'ML Bancorp,Villanova,PA'
p1174
asS'9/17/1998'
p1175
(lp1176
S'Prestige Financial Corp'
p1177
aS'Commerce Bancorp,New Jersey'
p1178
asS'2/4/1992'
p1179
(lp1180
S'Palmer Bancorp'
p1181
ag178
asS'9/13/1988'
p1182
(lp1183
S'Peoples Mid-Illinois Corp'
p1184
aS'Midwest Financial Group Inc'
p1185
asS'9/13/1989'
p1186
(lp1187
S'First Macomb Bancorp Inc'
p1188
ag750
asS'9/5/2013'
p1189
(lp1190
S'Florida Shores Bancorp Inc'
p1191
ag163
asS'11/4/1993'
p1192
(lp1193
S'First Bancorp of Louisiana'
p1194
ag336
asS'12/1/1995'
p1195
(lp1196
S'Greene Bancorp,Greene,Iowa'
p1197
aS'Lincoln Bancorp'
p1198
asS'12/1/1997'
p1199
(lp1200
S'First of Amer Bk,Kalamazoo,MI'
p1201
aS'Natl City Corp,Cleveland,Ohio'
p1202
asS'12/1/1990'
p1203
(lp1204
S'Rosendale Bancshares Inc'
p1205
aS'Marshall & Ilsley,Milwaukee,WI'
p1206
asS'10/24/2011'
p1207
(lp1208
S'Anderen Financial Inc'
p1209
aS'1st United Bancorp,Boca Raton'
p1210
asS'10/24/2012'
p1211
(lp1212
S'Century Bank,Eugene,Oregon'
p1213
aS'Pac Continental Corp,Eugene,OR'
p1214
asS'8/25/2014'
p1215
(lp1216
S'MainStreet BankShares Inc'
p1217
aS'American National Bankshares'
p1218
asS'6/17/2015'
p1219
(lp1220
S'Florida Business Bancgroup Inc'
p1221
aS'Home BancShares Inc'
p1222
asS'11/28/1994'
p1223
(lp1224
S'Abbott Bank Group Inc'
p1225
ag761
asS'9/27/1985'
p1226
(lp1227
S'South Sound National Bank'
p1228
aS'Rainier Bancorporation,WA'
p1229
asS'2/7/1996'
p1230
(lp1231
S'Twentieth Bancorp Inc'
p1232
aS'Horizon Bancorp,Beckley,WV'
p1233
asS'9/3/1996'
p1234
(lp1235
S'Homeland Bankshares Corp,Iowa'
p1236
ag68
asS'2/7/1994'
p1237
(lp1238
S'Tri-State Bank & Trust, IL'
p1239
aS'Northwest Illinois Bancorp'
p1240
asS'2/13/1984'
p1241
(lp1242
S'Maine National Corp'
p1243
ag325
asS'9/3/1993'
p1244
(lp1245
S'KSB Financial'
p1246
aS'Independent Bank Corp,MA'
p1247
asS'10/23/2014'
p1248
(lp1249
S'Community Banc-Corp of Sheboyg'
p1250
aS'Heartland Financial USA Inc'
p1251
asS'10/17/1988'
p1252
(lp1253
S'Farmers & Merchants Bank,MD'
p1254
ag4
asS'4/10/1998'
p1255
(lp1256
S'Trans Finl,Bowling Green,KY'
p1257
aS'Star Banc Corp,Cincinnati,OH'
p1258
asS'6/8/2000'
p1259
(lp1260
S'Catskill Financial Corp,NY'
p1261
aS'Troy Financial Corp,Troy,NY'
p1262
asS'6/8/2001'
p1263
(lp1264
S'FleetBoston Finl Corp-Br(36)'
p1265
ag449
asS'4/10/1995'
p1266
(lp1267
S'Old North State Bank'
p1268
aS'Piedmont Bancshares Corp'
p1269
asS'5/13/2009'
p1270
(lp1271
S'CNB Financial Corp'
p1272
aS'United Financial Bancorp Inc'
p1273
asS'4/7/2006'
p1274
(lp1275
S'Washington Mutual Inc'
p1276
ag469
asS'9/19/1991'
p1277
(lp1278
S'Shawmut National Corp'
p1279
aS'Bank of Boston Corp,Boston,MA'
p1280
asS'1/27/1995'
p1281
(lp1282
S'Southwest Bancshares Inc'
p1283
ag992
asS'1/27/1997'
p1284
(lp1285
S'CB Financial Corp,Jackson,MI'
p1286
aS'Citizens Banking Corp,Flint,MI'
p1287
asS'9/19/1995'
p1288
(lp1289
S'State Savings Bancorp'
p1290
aS'Chemical Financial Corp'
p1291
asS'9/19/1994'
p1292
(lp1293
S'Commercial Bank,Middlesboro,KY'
p1294
aS'Pikeville Natl,Pikeville,KY'
p1295
asS'1/27/1992'
p1296
(lp1297
S'United Bancshares Inc,1 Other'
p1298
aS'FirsTier Financial Inc'
p1299
asS'1/27/1993'
p1300
(lp1301
S'First City Bank-Branch'
p1302
aS'First Natl Bk of Lubbock,Texas'
p1303
asS'9/21/2000'
p1304
(lp1305
S'Tehama County Bank,Red Bluff'
p1306
ag793
asS'9/21/2005'
p1307
(lp1308
S'Union Bnk of CA NA,CA-Intl'
p1309
aS'Wachovia Corp,Charlotte,NC'
p1310
asS'5/8/1985'
p1311
(lp1312
S'Fidelity Bk of Indiana,Carmel'
p1313
ag542
asS'11/25/1998'
p1314
(lp1315
S'Maple Leaf Financial Inc,Ohio'
p1316
aS'GLB Bancorp Inc,Mentor,OH'
p1317
asS'9/23/2002'
p1318
(lp1319
S'Acadiana Bancshares,Louisiana'
p1320
aS'IBERIABANK Corp'
p1321
asS'12/24/1990'
p1322
(lp1323
S'Founders National Bank,Brea,CA'
p1324
aS'Landmark Bancorp'
p1325
asS'6/3/1997'
p1326
(lp1327
S'Citizens State Bank,CA'
p1328
aS'Santa Barbara Bancorp,CA'
p1329
asS'6/3/1994'
p1330
(lp1331
S'City Bancorp Inc,Louisiana'
p1332
ag52
asS'9/6/2000'
p1333
(lp1334
S'Merchants New York Bancorp'
p1335
ag375
asS'6/3/1993'
p1336
(lp1337
S'Community Financial Bancorp'
p1338
aS'National Penn Bancshares,PA'
p1339
asS'9/6/2005'
p1340
(lp1341
S'Riverside Bancshares Inc,GA'
p1342
aS'Synovus Financial Corp'
p1343
asS'6/3/1991'
p1344
(lp1345
S'First Illinois Corp, Evanston'
p1346
ag205
asS'2/17/2009'
p1347
(lp1348
S'Bank of Auburn Hills,MI'
p1349
aS'Capitol Bancorp Ltd'
p1350
asS'1/7/1992'
p1351
(lp1352
S'Interstate Bancshares Inc,TX'
p1353
ag147
asS'7/7/2000'
p1354
(lp1355
S'Brenton Banks,Des Moines,IA'
p1356
aS'Wells Fargo & Co'
p1357
asS'4/16/2013'
p1358
(lp1359
S'Foster Bank Shares Inc'
p1360
aS'BBCN Bancorp Inc'
p1361
asS'7/7/2004'
p1362
(lp1363
S'Mystic Financial Inc,MA'
p1364
aS'Brookline Bancorp Inc'
p1365
asS'1/7/1994'
p1366
(lp1367
S'First Bank Washington of Omak'
p1368
aS'Central Bancorp,Wenatchee,WA'
p1369
asS'1/7/1998'
p1370
(lp1371
S'Miners Bank of Lykens'
p1372
aS'Mid Penn Bancorp Inc,PA'
p1373
asS'12/22/2003'
p1374
(lp1375
S'Pacific Union Bank,LA,CA'
p1376
aS'Hanmi Financial Corp'
p1377
asS'8/25/1989'
p1378
(lp1379
S'First Pennsylvania Corp'
p1380
aS'Meridian Bancorp Inc'
p1381
asS'5/12/2003'
p1382
(lp1383
S'Keweah National Bank,CA'
p1384
aS'CVB Financial Corp,Ontario,CA'
p1385
asS'9/24/2004'
p1386
(lp1387
S'First Clermont Bank,Milford,OH'
p1388
ag277
asS'3/31/1999'
p1389
(lp1390
S'Ready Bank of West Florida'
p1391
ag1343
asS'3/31/1998'
p1392
(lp1393
S'Dime Financial Corp'
p1394
aS'Hudson United Bancorp,NJ'
p1395
asS'3/31/1995'
p1396
(lp1397
S'Templeton National'
p1398
aS'Bank of Santa Maria,CA'
p1399
asS'9/16/1991'
p1400
(lp1401
S'First National Pennsylvania'
p1402
ag420
asS'9/16/1996'
p1403
(lp1404
S'Citizens Bancorp,Laurel,MD'
p1405
ag1073
asS'9/16/1997'
p1406
(lp1407
S'Metropolitan State Bank,NJ'
p1408
ag715
asS'9/24/2003'
p1409
(lp1410
S'First Capital Bancorp Inc,GA'
p1411
aS'CNB Holdings Inc,Alpharetta,GA'
p1412
asS'2/6/2004'
p1413
(lp1414
S'Rocky Mountain Bancorp,MO'
p1415
ag1251
asS'11/30/2015'
p1416
(lp1417
S'HF Financial Corp'
p1418
aS'Great Western Bancorp Inc'
p1419
asS'4/20/2015'
p1420
(lp1421
S'SBk FSB-Palm Beach Gardens,FL'
p1422
aS'CenterState Banks,Davenport,FL'
p1423
asS'4/20/2011'
p1424
(lp1425
S'Bancorp Rhode Island Inc'
p1426
ag1365
asS'9/17/1985'
p1427
(lp1428
S'Citizens and Southern Corp,SC'
p1429
aS'Citizens and Southern GA Corp'
p1430
asS'1/29/1998'
p1431
(lp1432
S'Southern Ohio Community'
p1433
aS'United Bancorp Inc,OH'
p1434
asS'1/29/1999'
p1435
(lp1436
S'First Central Bank,LA,CA'
p1437
aS'East West Bancorp Inc'
p1438
asS'11/18/1987'
p1439
(lp1440
S'Bank of Elizabethtown Inc'
p1441
ag159
asS'1/29/1992'
p1442
(lp1443
S'Columbia Bank,Wenatchee,WA'
p1444
ag627
asS'1/29/1993'
p1445
(lp1446
S'National Community Banks Inc'
p1447
ag786
asS'11/23/1992'
p1448
(lp1449
S'Stephenville Bank and Trust'
p1450
aS'First Abilene Bankshares Inc'
p1451
asS'11/23/1994'
p1452
(lp1453
S'Jupiter Tequesta National Bank'
p1454
ag1022
asS'1/29/1997'
p1455
(lp1456
S'Lowcountry Savings Bank,SC'
p1457
aS'Carolina First Corp,SC'
p1458
asS'11/21/2013'
p1459
(lp1460
S'BOH Holdings Inc'
p1461
aS'Independent Bank Group Inc'
p1462
asS'11/21/2014'
p1463
(lp1464
S'Central Bancshares Inc'
p1465
aS'MidWestOne Financial Group Inc'
p1466
asS'7/18/2008'
p1467
(lp1468
S'Columbia Financial Corp'
p1469
aS'CCFNB Bancorp Inc'
p1470
asS'7/18/2007'
p1471
(lp1472
S'Citrus & Chemical'
p1473
ag80
asS'7/18/2006'
p1474
(lp1475
S'Westbank Corp,MA'
p1476
aS'NewAlliance Bancshares Inc,CT'
p1477
asS'1/19/2005'
p1478
(lp1479
S'SouthBank,Woodstock, Georgia'
p1480
aS'Security Bank Corp,Macon.GA'
p1481
asS'3/17/1987'
p1482
(lp1483
S'United Nat Bk,Callicoon,NY'
p1484
ag499
asS'2/14/2013'
p1485
(lp1486
S'Community National Bancorp,IO'
p1487
aS'QCR Holdings Inc'
p1488
asS'10/4/2006'
p1489
(lp1490
S'Front Range Capital Corp'
p1491
aS'First State Bancorp,NM'
p1492
asS'8/27/1999'
p1493
(lp1494
S'Lanier Bancshares Inc'
p1495
ag811
asS'10/4/2004'
p1496
(lp1497
S'FNBG Bancshares Inc,Duluth,GA'
p1498
aS'GB&T Bancshares Inc,Georgia'
p1499
asS'10/19/2005'
p1500
(lp1501
S'Community First Finl Corp,VA'
p1502
ag1218
asS'6/1/2015'
p1503
(lp1504
S'CertusBk NA,Greenville,SC-Bran'
p1505
aS'BNC Bancorp,High Point,NC'
p1506
asS'11/8/1999'
p1507
(lp1508
S'Carolina First Bancshares,NC'
p1509
aS'First Charter Corp,Charlotte'
p1510
asS'7/27/1992'
p1511
(lp1512
S'First Northbrook Bancorp Inc'
p1513
aS'Premier Financial Services'
p1514
asS'7/27/1993'
p1515
(lp1516
S'First United Bank Group Inc'
p1517
ag1166
asS'7/27/1990'
p1518
(lp1519
g1181
aS'Merchants National Corp'
p1520
asS'1/18/1995'
p1521
(lp1522
g91
aS'Western Bank,Coos Bay,Oregon'
p1523
asS'5/29/2012'
p1524
(lp1525
S'BancTrust Financial Group Inc'
p1526
aS'Trustmark Corp,Jackson,MS'
p1527
asS'11/29/1988'
p1528
(lp1529
S'Portage National Bank,PA'
p1530
aS'BT Financial Corp,Johnstown,PA'
p1531
asS'7/27/1995'
p1532
(lp1533
S'American Bancorporation South'
p1534
ag1022
asS'7/27/1998'
p1535
(lp1536
S"First Nat'l Corp,West Point,MS"
p1537
aS'NBC Capital Corp'
p1538
asS'7/27/1999'
p1539
(lp1540
S'KSB Bancorp Inc,Kingfield,ME'
p1541
aS'Camden National Corp,Camden,ME'
p1542
asS'1/18/1999'
p1543
(lp1544
S'Bellingham Bancorp'
p1545
aS'Horizon Financial Corp,WA'
p1546
asS'10/11/2011'
p1547
(lp1548
S'Freestar Bank,Pontiac,Illinois'
p1549
aS'First Financial Corp'
p1550
asS'10/11/2012'
p1551
(lp1552
S'Heritage Bank,Phoenix,Arizona'
p1553
ag1251
asS'1/25/1995'
p1554
(lp1555
S'Bank of St John,La Place,LA'
p1556
ag336
asS'1/25/1993'
p1557
(lp1558
S'First National Bankshares Inc'
p1559
ag683
asS'1/25/1999'
p1560
(lp1561
S'Skaneateles Bancorp Inc'
p1562
aS'BSB Bancorp Inc,Binghamton,NY'
p1563
asS'11/25/2013'
p1564
(lp1565
S'First Wyoming Financial Corp'
p1566
aS'WSFS Financial Corp'
p1567
asS'11/8/2001'
p1568
(lp1569
S'MidAmerica Bancorp,Louisville'
p1570
ag491
asS'6/10/2013'
p1571
(lp1572
S'StellarOne Corp'
p1573
aS'Union First Market Bankshares'
p1574
asS'7/25/2007'
p1575
(lp1576
S'Bank of Salem'
p1577
aS'Frontier Finl Corp,Everett,WA'
p1578
asS'7/25/2006'
p1579
(lp1580
S'BOTH Inc'
p1581
aS'Sterling Bancshares Inc'
p1582
asS'7/25/2005'
p1583
(lp1584
S'Palm Beach County Bank,FL'
p1585
ag1178
asS'7/25/2004'
p1586
(lp1587
S'Snake River Bancorp Inc,ID'
p1588
aS'Intermountain Cmnty Bancorp'
p1589
asS'5/16/2011'
p1590
(lp1591
S'Global Trust Bank'
p1592
aS'Bay Coml Bk,Walnut Creek,CA'
p1593
asS'4/8/1988'
p1594
(lp1595
S'Central Bancorporation'
p1596
ag119
asS'7/3/2006'
p1597
(lp1598
S'Summit Bancshares Inc'
p1599
ag733
asS'5/27/1986'
p1600
(lp1601
S'New Jersey Natl Corp(CoreStat)'
p1602
ag586
asS'7/1/1985'
p1603
(lp1604
S'Hanover Bank of Pennsylvania'
p1605
aS'First Valley Corp'
p1606
asS'7/1/1986'
p1607
(lp1608
S'Home Bank & Trust, Meriden, CT'
p1609
aS'Shawmut Corp,Boston,MA'
p1610
asS'7/1/1987'
p1611
(lp1612
S'Lebanon Bank,Tennessee'
p1613
ag107
asS'10/14/2014'
p1614
(lp1615
S'Delavan Bancshares Inc'
p1616
ag859
asS'5/30/1995'
p1617
(lp1618
S'MNB Bancshares Inc,KS'
p1619
ag473
asS'5/30/1996'
p1620
(lp1621
S'Farmers State Bancorp,Indiana'
p1622
ag305
asS'11/19/2014'
p1623
(lp1624
S'Capital Pacific Bancorp'
p1625
ag1214
asS'11/19/2013'
p1626
(lp1627
S'Gassaway Bancshares Inc'
p1628
ag28
asS'11/17/1993'
p1629
(lp1630
S'Western Industrial National'
p1631
ag1385
asS'11/17/1997'
p1632
(lp1633
S'Century Finl Corp,Rochester,PA'
p1634
ag707
asS'11/17/1995'
p1635
(lp1636
S'Republic Bancorporation Inc'
p1637
aS'ExecuFirst Bancorp Inc'
p1638
asS'11/17/1994'
p1639
(lp1640
S'United Financial Bancorp Inc'
p1641
ag975
asS'11/17/1999'
p1642
(lp1643
S'Hardwick Holding Co'
p1644
ag491
asS'2/15/1989'
p1645
(lp1646
S'C S Bancshares Inc'
p1647
ag844
asS'7/23/2015'
p1648
(lp1649
S'Grand Bank,Dallas,TX'
p1650
ag1462
asS'1/12/1994'
p1651
(lp1652
S'Equitable-8 OH Branches'
p1653
ag844
asS'9/8/1997'
p1654
(lp1655
S'TB&T Bancshares,Brownsville,TX'
p1656
ag649
asS'9/8/1994'
p1657
(lp1658
S'Standard Bancorp Inc'
p1659
ag412
asS'9/8/1995'
p1660
(lp1661
S'Farmers & Merchants Bank,PA'
p1662
ag495
asS'9/8/1992'
p1663
(lp1664
S'First State Bk,Fayette Cnty,TN'
p1665
ag293
asS'12/4/1995'
p1666
(lp1667
S'West One Bancorp-WA,OR,ID'
p1668
aS'First Hawaiian Inc,Honolulu,HI'
p1669
asS'1/12/1993'
p1670
(lp1671
S'Villa Rica Bancorp Inc'
p1672
aS'First National Bancorp,Georgia'
p1673
asS'3/15/1988'
p1674
(lp1675
S'Unibancorp Inc,Chicago,IL'
p1676
ag918
asS'10/23/1992'
p1677
(lp1678
S'Flagler Bank Corp'
p1679
ag72
asS'12/4/1998'
p1680
(lp1681
S'High Point Financial Corp'
p1682
ag715
asS'1/12/1998'
p1683
(lp1684
S'CBT Corp,Paducah,Kentucky'
p1685
ag992
asS'1/12/1999'
p1686
(lp1687
S'Merchants Shenandoah Bancorp'
p1688
aS'First Leesport Bancorp Inc'
p1689
asS'9/8/1998'
p1690
(lp1691
S'First Chicago NBD-Branches(51)'
p1692
ag293
asS'9/8/1999'
p1693
(lp1694
S'Kings River Bancorp'
p1695
aS'VIB Corp,El Centro,California'
p1696
asS'6/26/2003'
p1697
(lp1698
S'Sarasota Bancorp Inc,FL'
p1699
ag80
asS'3/11/2004'
p1700
(lp1701
S'First Shares Bancorp Inc,IN'
p1702
aS'Lincoln Bancorp,IN'
p1703
asS'6/26/2001'
p1704
(lp1705
S'SJNB Financial Corp,CA'
p1706
aS'Greater Bay Bancorp,Palo Alto'
p1707
asS'6/26/2000'
p1708
(lp1709
S'Hudson River Bancorp Inc,NY'
p1710
aS'TrustCo Bank Corp,NY'
p1711
asS'4/23/1999'
p1712
(lp1713
S'First American Financial,TX'
p1714
aS'Guaranty Bancshares Inc'
p1715
asS'4/23/1998'
p1716
(lp1717
S'Pacific Commerce Bank,CA'
p1718
aS'Scripps Bank,La Jolla,CA'
p1719
asS'4/23/1996'
p1720
(lp1721
S'Third Financial Corp,Piqua,OH'
p1722
aS'Security Banc Corp,OH'
p1723
asS'4/23/1993'
p1724
(lp1725
S'First Bentonville Bancshares'
p1726
ag506
asS'4/23/1992'
p1727
(lp1728
S'Central Financial Corp'
p1729
ag4
asS'9/10/1996'
p1730
(lp1731
S'Bank of Stapleton,Stapleton,GA'
p1732
aS'Allied Bankshares Inc,GA'
p1733
asS'5/19/1994'
p1734
(lp1735
S'Dalhart Bancshares Inc'
p1736
ag878
asS'5/19/1997'
p1737
(lp1738
S'Beckley Bancorp Inc,Beckley,WV'
p1739
ag1233
asS'5/19/1993'
p1740
(lp1741
S'First Natl Finl,Albuquerque,NM'
p1742
aS'First Security Corp,Utah'
p1743
asS'9/7/1993'
p1744
(lp1745
S'Pulaski Bancshares Inc'
p1746
aS'F&M Bancorp,Kaukauna,WI'
p1747
asS'10/31/1997'
p1748
(lp1749
S'Ohio River Bank,Ironton,OH'
p1750
ag28
asS'10/31/1995'
p1751
(lp1752
S'NBD Bank,Columbus,Ohio'
p1753
ag844
asS'5/19/1999'
p1754
(lp1755
S'Western Bancorp,California'
p1756
aS'US Bancorp,Minneapolis,MN'
p1757
asS'5/19/1998'
p1758
(lp1759
S'Northwest Bancshares,TX'
p1760
aS'Gold Banc Corp Inc,Leawood,KS'
p1761
asS'9/7/1995'
p1762
(lp1763
S'Bunkie Bancshares Inc'
p1764
ag336
asS'10/31/1991'
p1765
(lp1766
S'Indiana Bancshares Inc'
p1767
aS'CNB Bancshares Inc,IN'
p1768
asS'8/8/2006'
p1769
(lp1770
S'Wells River Bancorp Inc'
p1771
ag281
asS'6/21/2004'
p1772
(lp1773
S'SouthTrust Corp,Birmingham,AL'
p1774
ag1310
asS'6/21/2005'
p1775
(lp1776
S'Falls Bank,Stow,Ohio'
p1777
ag281
asS'6/21/2002'
p1778
(lp1779
S'CNB Holdings Inc,Pulaski,VA'
p1780
ag532
asS'8/8/2000'
p1781
(lp1782
S'SWVA Bancshares Inc'
p1783
aS'FNB Corp,Christianburg,VA'
p1784
asS'11/17/2004'
p1785
(lp1786
S'First Northwest Bancorp Inc,Il'
p1787
ag645
asS'10/27/2004'
p1788
(lp1789
S'Pointe Financial Corp,FL'
p1790
aS'The South Financial Group Inc'
p1791
asS'10/27/2005'
p1792
(lp1793
S'Stone City Bancshares Inc,'
p1794
ag1088
asS'5/24/2006'
p1795
(lp1796
S'PB Financial Services Corp'
p1797
ag96
asS'10/27/2003'
p1798
(lp1799
S'Reunion Bancshares Inc,TX'
p1800
aS'Southwest Bancorp of Texas,TX'
p1801
asS'7/17/1986'
p1802
(lp1803
S'Premier Banks,Libertyville,IL'
p1804
ag416
asS'8/15/1988'
p1805
(lp1806
S'First Bank of Marion County,TN'
p1807
aS'Sovran Financial,Norfolk,VA'
p1808
asS'10/6/2010'
p1809
(lp1810
S'Monroe Bancorp,Bloomington,IN'
p1811
ag178
asS'10/30/1991'
p1812
(lp1813
S'Merchants National Corp'
p1814
ag1202
asS'10/30/1990'
p1815
(lp1816
S'Liberty Natl Bank,Liberty MO'
p1817
aS'United Missouri Bancshares'
p1818
asS'10/30/1992'
p1819
(lp1820
S'First Lehigh Corp'
p1821
ag217
asS'12/17/2003'
p1822
(lp1823
S'Peoples Finl Corp,IN'
p1824
ag822
asS'10/30/1997'
p1825
(lp1826
S'Centennial Holdings,Olympia,WA'
p1827
ag1058
asS'12/17/2008'
p1828
(lp1829
S'Canton Bancorp Inc,PA'
p1830
aS'Chemung Financial,Elmira,NY'
p1831
asS'2/5/2007'
p1832
(lp1833
S'Gwinnett Commercial Group Inc'
p1834
aS'United Community Banks Inc'
p1835
asS'4/16/2015'
p1836
(lp1837
S'Fairmount Bancorp Inc'
p1838
aS'Hamilton Bancorp Inc'
p1839
asS'6/30/1999'
p1840
(lp1841
S'Eagle Bancgroup,Bloomington,IL'
p1842
ag804
asS'6/30/1998'
p1843
(lp1844
S'MarTex Bancshares,Pittsburg,TX'
p1845
ag336
asS'6/30/1997'
p1846
(lp1847
S'Carolina State Bank,Shelby,NC'
p1848
ag1510
asS'6/30/1995'
p1849
(lp1850
S'First Colonial Bank FSB,VA'
p1851
aS'James River Bankshares Inc,VA'
p1852
asS'6/30/1994'
p1853
(lp1854
S'First Citizens Bancorp of IN'
p1855
aS'KeyCorp,Cleveland,Ohio'
p1856
asS'6/30/1993'
p1857
(lp1858
S'First Acadiana National Bncshr'
p1859
ag52
asS'5/12/2005'
p1860
(lp1861
S'Keystone Finl,Kalamazoo,MI'
p1862
aS'Firstbank Corp,Alma,Michigan'
p1863
asS'10/1/1992'
p1864
(lp1865
S'Valley Commun Bk,Kingston,PA'
p1866
ag971
asS'10/1/1993'
p1867
(lp1868
S'KeyCorp,Albany,NY(Key Corp,OH)'
p1869
aS'Society Corp'
p1870
asS'9/17/1986'
p1871
(lp1872
S'OmniBank Corp,Wyandotte,MI'
p1873
ag477
asS'10/1/1996'
p1874
(lp1875
S'Austin State Bank,Austin,IN'
p1876
aS'SY Bancorp,Louisville,KY'
p1877
asS'10/19/2006'
p1878
(lp1879
S'Far West Bancorp,Provo Utah'
p1880
aS'AmericanWest Bancorp,Spokane'
p1881
asS'10/1/1998'
p1882
(lp1883
S'Windsor Bancshares Inc,MN'
p1884
aS'Associated Banc-Corp'
p1885
asS'10/24/2000'
p1886
(lp1887
S'First Capital Bank,Phoenix,AZ'
p1888
aS'Colorado Business Bankshares'
p1889
asS'8/25/2008'
p1890
(lp1891
S'Guaranty Financial Services'
p1892
aS'First Sentry Bancshares Inc'
p1893
asS'8/25/2004'
p1894
(lp1895
S'Redwood Empire Bancorp,CA'
p1896
aS'Westamerica Bancorp'
p1897
asS'8/25/2005'
p1898
(lp1899
S'Advantage Bank,Branchburg,NJ'
p1900
aS'Sun Bancorp Inc,Vineland,NJ'
p1901
asS'10/24/2008'
p1902
(lp1903
S'Natl City Corp,Cleveland,Ohio'
p1904
ag453
asS'8/25/2000'
p1905
(lp1906
S'Community Bankshares,Bowie,MD'
p1907
ag683
asS'8/25/2003'
p1908
(lp1909
S'Resource Bankshares Corp,VA'
p1910
ag217
asS'9/27/1994'
p1911
(lp1912
S'Woodford Bancorp,Versailles,KY'
p1913
ag1295
asS'9/27/1996'
p1914
(lp1915
S'Gulf South Bancshares Inc,LA'
p1916
ag237
asS'9/26/2014'
p1917
(lp1918
S'Herget Financial Corp'
p1919
ag804
asS'9/26/2012'
p1920
(lp1921
S'West Coast Bancorp'
p1922
aS'Columbia Banking System Inc'
p1923
asS'2/7/1986'
p1924
(lp1925
S'Thunderbird Capital,Phoenix,AZ'
p1926
ag1206
asS'5/2/2002'
p1927
(lp1928
S'Paradigm Bancorp Inc,Houston'
p1929
ag36
asS'11/27/1991'
p1930
(lp1931
S'First Security Corp of KY'
p1932
ag205
asS'5/2/2005'
p1933
(lp1934
S'Gateway Hldg Co Inc,Dallas,TX'
p1935
ag979
asS'12/15/1995'
p1936
(lp1937
S'Crawford Bancorp'
p1938
ag1550
asS'12/15/1993'
p1939
(lp1940
S'Sterling Bank & Trust Co FSB'
p1941
aS'Provident Bankshares Corp,MD'
p1942
asS'6/8/2010'
p1943
(lp1944
S'LaFollette First National Corp'
p1945
aS'Community Trust Bancorp,KY'
p1946
asS'7/5/1992'
p1947
(lp1948
S'FedFirst Bancshares Inc'
p1949
ag1136
asS'7/5/1990'
p1950
(lp1951
S'Bank of Hundred'
p1952
aS'CB&T Financial,Fairmont,WV'
p1953
asS'8/6/2002'
p1954
(lp1955
S'Valencia Bank & Trust'
p1956
ag653
asS'7/5/1995'
p1957
(lp1958
S'Western Reserve Bank of Ohio'
p1959
ag707
asS'12/15/1999'
p1960
(lp1961
S'First Banking Co of Southeast'
p1962
ag491
asS'12/31/1994'
p1963
(lp1964
S'Hazelhurst Corp'
p1965
aS'Northern Trust Corp'
p1966
asS'4/12/2006'
p1967
(lp1968
S'Citizen National Bancshares,KY'
p1969
aS'Farmers Capital Bank Corp'
p1970
asS'4/12/2007'
p1971
(lp1972
S'Randolph Bank & Trust Co'
p1973
aS'Bank of the Carolinas Corp'
p1974
asS'12/30/2014'
p1975
(lp1976
S'State Investors Bancorp Inc'
p1977
aS'First NBC Bank Holding Co'
p1978
asS'8/13/1986'
p1979
(lp1980
S'Conifer/Essex Group Inc'
p1981
ag325
asS'9/19/1985'
p1982
(lp1983
S'Fayette Bk & Tr, Uniontown, PA'
p1984
ag1531
asS'5/5/2010'
p1985
(lp1986
S'NexTier Inc'
p1987
aS'Northwest Bancshares Inc'
p1988
asS'5/5/2014'
p1989
(lp1990
S'Continental Bank Holdings Inc'
p1991
aS'Bryn Mawr Bank Corp'
p1992
asS'7/30/1992'
p1993
(lp1994
S'Prime Bancshares,Decatur,GA'
p1995
ag432
asS'3/26/1987'
p1996
(lp1997
S'United Vermont Bancorp,Rutland'
p1998
aS'Merchants Bancshares Inc,VT'
p1999
asS'8/5/1992'
p2000
(lp2001
S'DSB Corp'
p2002
ag221
asS'8/28/1986'
p2003
(lp2004
S'Cobanco Inc,Santa Cruz'
p2005
aS'Pacific Western Bancshares,CA'
p2006
asS'8/28/1989'
p2007
(lp2008
S'Meigs County Bancshares Inc'
p2009
aS'BMR Financial Group'
p2010
asS'6/6/1986'
p2011
(lp2012
S'First National Bk Pike Cty, PA'
p2013
ag1381
asS'8/5/2014'
p2014
(lp2015
S'Peoples Federal Bancshares Inc'
p2016
ag24
asS'8/5/2015'
p2017
(lp2018
S'Regal Bancorp Inc'
p2019
aS'Old Line Bancshares Inc'
p2020
asS'7/9/1997'
p2021
(lp2022
S'Highland Fed Bk,CA-CA Branch'
p2023
aS'First Banks Inc,Clayton'
p2024
asS'7/9/1993'
p2025
(lp2026
S'City Bancorp Inc,MO'
p2027
ag68
asS'7/9/1992'
p2028
(lp2029
S'Cherry Hill National Bank,NJ'
p2030
ag1381
asS'2/29/1988'
p2031
(lp2032
S'Hibernia Bank'
p2033
ag309
asS'7/9/1999'
p2034
(lp2035
S'Peoples Bank Corp,Indiana'
p2036
ag844
asS'7/9/1998'
p2037
(lp2038
S'Frederica Bank & Trust,GA'
p2039
ag665
asS'7/7/2015'
p2040
(lp2041
S'Reunion Bank Of Florida'
p2042
aS'National Commerce Corp'
p2043
asS'2/11/1998'
p2044
(lp2045
S'Bryan Bancorp of Georgia Inc'
p2046
aS'Savannah Bancorp,Savannah,GA'
p2047
asS'2/11/1993'
p2048
(lp2049
S'First Bath Corp'
p2050
ag1381
asS'2/6/1990'
p2051
(lp2052
S'First Interstate of Hawaii Inc'
p2053
ag1669
asS'3/31/1989'
p2054
(lp2055
S'New Holland Farmers Bank'
p2056
ag68
asS'3/31/1986'
p2057
(lp2058
S'CommerceAmerica Corp,Indiana'
p2059
ag542
asS'3/31/1987'
p2060
(lp2061
S'Commercial Security Bancorp,UT'
p2062
aS'KeyCorp,Albany,NY(Key Corp,OH)'
p2063
asS'2/6/2013'
p2064
(lp2065
S'Flagstar Bank-Coml Bkg Bus'
p2066
ag1106
asS'5/14/1987'
p2067
(lp2068
S'Allied Bancshares,Houston,TX'
p2069
aS'First Interstate Bancorp'
p2070
asS'5/14/1986'
p2071
(lp2072
S'First Citizen Bank AL,Oneonta'
p2073
aS'First AL Bancshares,AL'
p2074
asS'9/18/1989'
p2075
(lp2076
S'First Interstate Corp of WI'
p2077
ag1166
asS'1/23/1996'
p2078
(lp2079
S'Prairie Bancorp,Princeton,IL'
p2080
aS'UnionBancorp Inc,Ottawa,IL'
p2081
asS'9/18/1987'
p2082
(lp2083
S'Profile Financial Corp'
p2084
aS'Cornerstone Financial Corp'
p2085
asS'12/18/1985'
p2086
(lp2087
S'Indiana Banks (2)'
p2088
aS'Citizens Fidelity, Louisville'
p2089
asS'3/7/2006'
p2090
(lp2091
S'Bristol Bank,Coral Gables,FL'
p2092
aS'Bancshares of Florida Inc,FL'
p2093
asS'3/7/2005'
p2094
(lp2095
S'Summit Financial Corp,SC'
p2096
aS'First Citizens BancShares Inc'
p2097
asS'12/18/1989'
p2098
(lp2099
S'SBT Bancorp Inc,Mt Carmel,IL'
p2100
ag178
asS'7/10/1995'
p2101
(lp2102
S'Midlantic Corp'
p2103
aS'PNC Bank Corp,Pittsburgh,PA'
p2104
asS'7/10/1996'
p2105
(lp2106
S'First Finl Corp of America,MO'
p2107
ag992
asS'7/10/1997'
p2108
(lp2109
S'Pacific State Bk,Reedsport,OR'
p2110
aS'Security Bank Holding,OR'
p2111
asS'7/10/1990'
p2112
(lp2113
S'United Banks of Colorado'
p2114
ag1166
asS'2/17/2004'
p2115
(lp2116
S'Renasant Bancshares Inc,TN'
p2117
aS'Peoples Holding Co Inc,MI'
p2118
asS'7/10/1998'
p2119
(lp2120
S'Downstate Banking Co'
p2121
ag975
asS'11/21/2001'
p2122
(lp2123
S'Ridgeway Bancshares Inc'
p2124
aS'Community Bankshares Inc'
p2125
asS'8/2/1996'
p2126
(lp2127
S'Southeast National Bank,LA'
p2128
ag679
asS'8/2/1995'
p2129
(lp2130
S'Flemington Natl Bank & Trust'
p2131
aS'UJB Financial Corp'
p2132
asS'8/2/1994'
p2133
(lp2134
S'Levy Bancorp'
p2135
ag473
asS'8/2/1993'
p2136
(lp2137
S'Constellation Bancorp'
p2138
ag586
asS'8/2/1991'
p2139
(lp2140
S'Tygarts Valley Natl Bk,VA'
p2141
ag1953
asS'11/21/2006'
p2142
(lp2143
S'United Heritage Bank,NJ'
p2144
aS'Cathay Gen Bancorp,LA,CA'
p2145
asS'1/30/2013'
p2146
(lp2147
S'Virginia Commerce Bancorp Inc'
p2148
ag209
asS'1/30/2014'
p2149
(lp2150
S'Summit Bancorp Inc,Arkadelphia'
p2151
ag285
asS'6/2/1983'
p2152
(lp2153
S'Flagship Bk-Tallahassee (Sun)'
p2154
aS'First Florida Banks Inc'
p2155
asS'1/24/2013'
p2156
(lp2157
S'First National Bank,Shelby,NC'
p2158
ag285
asS'7/4/2002'
p2159
(lp2160
S'Bank of Canton of California'
p2161
aS'UCBH Holdings Inc'
p2162
asS'10/3/2008'
p2163
(lp2164
S'Wachovia Corp,Charlotte,NC'
p2165
ag1357
asS'10/3/2002'
p2166
(lp2167
S'Central Bank of Tampa,Tampa,FL'
p2168
ag1791
asS'10/3/2007'
p2169
(lp2170
S'Equitable Financial Group Inc'
p2171
ag1210
asS'4/25/2000'
p2172
(lp2173
S'Northern Bank of Commerce,OR'
p2174
aS'Cowlitz Bancorp'
p2175
asS'4/25/2003'
p2176
(lp2177
S'Asiana Bank,Sunnyvale,CA'
p2178
aS'Nara Bancorp Inc,LA,CA'
p2179
asS'4/25/2006'
p2180
(lp2181
S'Home Building Bancorp Inc,IN'
p2182
aS'First Bancorp of Indiana Inc'
p2183
asS'3/19/1993'
p2184
(lp2185
S'Royal Bank Group Inc'
p2186
ag1287
asS'2/21/1995'
p2187
(lp2188
g1279
aS'Fleet Financial Group Inc,MA'
p2189
asS'10/11/2006'
p2190
(lp2191
S'Potomac Bank of Virginia'
p2192
aS'Sandy Spring Bancorp Inc'
p2193
asS'2/21/1997'
p2194
(lp2195
S'NBC Financial Corp,Louisiana'
p2196
aS'Deposit Guaranty,Jackson,MS'
p2197
asS'10/11/2001'
p2198
(lp2199
S'Liberty Bank & Trust Co,Boston'
p2200
aS'GBC Bancorp,Los Angeles,CA'
p2201
asS'10/10/2001'
p2202
(lp2203
S'Carnegie Financial Corp,PA'
p2204
aS'Fidelity Bancorp,Pittsburgh,PA'
p2205
asS'2/9/2009'
p2206
(lp2207
S'First National Bank & Trust,WY'
p2208
ag249
asS'11/15/1990'
p2209
(lp2210
S'Commercial Bk,Douglasville,GA'
p2211
ag356
asS'11/15/1993'
p2212
(lp2213
S'Country Natl Bank,Redding,CA'
p2214
aS'TriCo Bancshares,Chico,CA'
p2215
asS'4/18/2007'
p2216
(lp2217
S'FNB Finl Corp,Three Rivers,MI'
p2218
aS'Southern Michigan Bancorp,MI'
p2219
asS'11/15/1995'
p2220
(lp2221
S'Delta Bank & Trust Co,LA'
p2222
ag237
asS'11/15/1994'
p2223
(lp2224
S'West Side Bancshares,TX'
p2225
ag878
asS'11/15/1996'
p2226
(lp2227
S'West Coast Bancorp Inc,Florida'
p2228
ag352
asS'6/22/1994'
p2229
(lp2230
S'Sacramento First Natl Bk,CA'
p2231
aS'Business & Professional Bk,CA'
p2232
asS'6/22/1995'
p2233
(lp2234
g2222
ag336
asS'3/24/1995'
p2235
(lp2236
S'Lakeside Bancshares Inc'
p2237
ag52
asS'3/24/1993'
p2238
(lp2239
S'New Dartmouth Bank,NH'
p2240
ag623
asS'5/27/1993'
p2241
(lp2242
g1742
ag1747
asS'5/27/1994'
p2243
(lp2244
S'First Bancshares,Slidell,LA'
p2245
ag52
asS'3/24/1998'
p2246
(lp2247
S'Village Bankshares Inc,FL'
p2248
ag237
asS'7/1/1998'
p2249
(lp2250
S'Firstar Corp,Milwaukee, Wi'
p2251
ag1258
asS'12/21/1988'
p2252
(lp2253
S'Elk National Bk,Big Chimney,WV'
p2254
ag209
asS'7/1/1994'
p2255
(lp2256
S'Metropolitan Financial Corp'
p2257
ag119
asS'7/1/1992'
p2258
(lp2259
S'MidAmerican Corp'
p2260
ag992
asS'10/15/2004'
p2261
(lp2262
S'NSD Bancorp Inc,Pittsburgh.PA'
p2263
ag111
asS'12/11/1992'
p2264
(lp2265
S'Sailors and Merchants Bank'
p2266
ag56
asS'12/11/1991'
p2267
(lp2268
S'National Bank of the West,CO'
p2269
ag1818
asS'12/11/1996'
p2270
(lp2271
S'First Valley Bank,Lompoc,CA'
p2272
ag1329
asS'12/11/1997'
p2273
(lp2274
S'First State Corp,Albany,Ga'
p2275
ag237
asS'6/24/2010'
p2276
(lp2277
S'Christiana Bank & Trust Co'
p2278
ag1567
asS'6/24/2014'
p2279
(lp2280
S'Georgia-Carolina Bancshares'
p2281
aS'State Bank Financial Corp'
p2282
asS'3/16/1995'
p2283
(lp2284
S'Mt Vernon Financial Corp'
p2285
ag80
asS'3/16/1993'
p2286
(lp2287
S'Shelby County Bank,Shelbyville'
p2288
ag844
asS'3/16/1990'
p2289
(lp2290
S'Wyoming National Bancorp'
p2291
ag1166
asS'10/13/1997'
p2292
(lp2293
S'First Community Bancshares,TN'
p2294
ag293
asS'10/13/1994'
p2295
(lp2296
S'Aiken County National Bank'
p2297
ag1458
asS'10/13/1992'
p2298
(lp2299
S'Union Bank & Tr,Morganfeld,KY'
p2300
ag975
asS'9/8/1981'
p2301
(lp2302
S'Florida National Bank'
p2303
ag582
asS'4/15/1988'
p2304
(lp2305
S'Monroe Bankshares,Tennessee'
p2306
ag32
asS'9/8/1987'
p2307
(lp2308
S'United Midwest Bancorp,Troy,MI'
p2309
ag750
asS'9/8/1986'
p2310
(lp2311
S'Boone Corp,Lebanon,IN'
p2312
aS'AmeriTrust Corp,Cleveland,OH'
p2313
asS'9/11/2014'
p2314
(lp2315
S'TCNB Financial Corp'
p2316
aS'First Citizens Banc Corp,OH'
p2317
asS'7/20/2015'
p2318
(lp2319
S'United International Bank'
p2320
aS'Preferred Bank,Los Angeles,CA'
p2321
asS'6/26/2015'
p2322
(lp2323
S'FNBPA Bancorp Inc'
p2324
aS'Juniata Valley Financial Corp'
p2325
asS'3/19/2004'
p2326
(lp2327
S'Madison Bancshares Inc,FL'
p2328
ag461
asS'4/23/1984'
p2329
(lp2330
S'Hawaiian Trust Co'
p2331
aS'Bancorp Hawaii Inc,Honolulu,HI'
p2332
asS'7/30/1996'
p2333
(lp2334
S'Park Bankshares,Lake Park,FL'
p2335
ag1022
asS'4/13/2001'
p2336
(lp2337
S'City Bancshares Inc,Mineral'
p2338
ag12
asS'7/6/2006'
p2339
(lp2340
S'New Asia Bancorp Inc,Chicago'
p2341
ag2145
asS'4/13/2005'
p2342
(lp2343
S'Peoples State Bk,Georgia'
p2344
ag1350
asS'1/21/2014'
p2345
(lp2346
S'North Valley Bancorp'
p2347
ag2215
asS'4/13/2006'
p2348
(lp2349
S'West Pointe Bancorp Inc'
p2350
aS'Commerce Bancshares Inc'
p2351
asS'4/8/1993'
p2352
(lp2353
g1922
ag1523
asS'1/21/2015'
p2354
(lp2355
S'Asia Bancshares Inc'
p2356
ag2145
asS'4/8/1994'
p2357
(lp2358
S'Unity Bancorp,New Waterford,OH'
p2359
ag707
asS'4/8/1996'
p2360
(lp2361
S'Sunrise Bancorp,Roseville,CA'
p2362
aS'ValliCorp Holdings Inc,CA'
p2363
asS'5/19/1987'
p2364
(lp2365
S'Peoples Ban Corp,Seattle'
p2366
aS'US Bancorp,Portland,Oregon'
p2367
asS'9/4/1998'
p2368
(lp2369
S'Monocacy Bancshares Inc'
p2370
aS'F&M Bancorp,Frederick,MD'
p2371
asS'3/25/1994'
p2372
(lp2373
S'United National Bancorp'
p2374
ag383
asS'8/8/2012'
p2375
(lp2376
S'Savannah Bancorp,Savannah,GA'
p2377
aS'SCBT Finl Corp,Columbia,SC'
p2378
asS'3/25/1991'
p2379
(lp2380
S'Marine Corp,Springfield,IL'
p2381
ag205
asS'3/25/1992'
p2382
(lp2383
S'Peoples Bancorp Inc,Lebanon,PA'
p2384
ag1381
asS'5/19/1989'
p2385
(lp2386
S'Tower Properties Co'
p2387
ag2351
asS'8/12/1991'
p2388
(lp2389
S'Security Pacific,Los Angeles'
p2390
aS'BankAmerica Corp'
p2391
asS'10/27/2014'
p2392
(lp2393
S'Old Florida Bancshares Inc'
p2394
ag1321
asS'8/12/1992'
p2395
(lp2396
S'South Central Illinois Bancorp'
p2397
ag1768
asS'8/12/1994'
p2398
(lp2399
S'Bank of Newport,Newport Beach'
p2400
ag313
asS'8/12/1996'
p2401
(lp2402
S'Missoula Bancshares,Montana'
p2403
ag249
asS'10/6/2000'
p2404
(lp2405
S'First Sec Bank,Sarasota,FL'
p2406
aS'United Financial Holdings Inc'
p2407
asS'4/11/2002'
p2408
(lp2409
S'Bancorp Connecticut Inc'
p2410
ag896
asS'10/6/2003'
p2411
(lp2412
S'First State Bank of North TX'
p2413
ag36
asS'8/15/1994'
p2414
(lp2415
S'Peach State Bank,Riverdale,GA'
p2416
ag1343
asS'10/6/2006'
p2417
(lp2418
S'Legacy Bank NA,Campbell,CA'
p2419
aS'United Security Bancshares,CA'
p2420
asS'8/15/1997'
p2421
(lp2422
S'Keystone Heritage Group'
p2423
ag217
asS'5/15/2007'
p2424
(lp2425
S'Stamford Bank Corp,Stamford,NY'
p2426
aS'Delaware Bancshares,Walton,NY'
p2427
asS'5/23/1995'
p2428
(lp2429
S'Mariners Bancorp'
p2430
ag964
asS'5/23/1997'
p2431
(lp2432
S'Great Lakes Natl Bk Ohio,Ohio'
p2433
ag844
asS'5/23/1990'
p2434
(lp2435
S'Farmers & Merchant-Eastn Shore'
p2436
ag1148
asS'5/23/1991'
p2437
(lp2438
S'Valley Bank,Moreno Valley'
p2439
aS'California State Bank'
p2440
asS'4/16/2004'
p2441
(lp2442
S'Madison Bancshares Grp Ltd,PA'
p2443
aS'Leesport Financial Corp,PA'
p2444
asS'4/16/2002'
p2445
(lp2446
S'CenterState Bank of Florida'
p2447
aS'CenterState Banks of FL Inc,FL'
p2448
asS'4/16/2003'
p2449
(lp2450
S'CB Bancshares Inc,Honolulu,HI'
p2451
aS'CPB Inc,Honolulu,Hawaii'
p2452
asS'6/30/1986'
p2453
(lp2454
S'Citizens Fidelity, Louisville'
p2455
ag420
asS'6/30/1987'
p2456
(lp2457
S'Western Security Finl,Salem,OR'
p2458
ag2063
asS'6/30/1989'
p2459
(lp2460
S'Bank of Myrtle Point'
p2461
ag1523
asS'12/13/1993'
p2462
(lp2463
S'First Columbus Financial Corp'
p2464
ag2197
asS'7/26/1999'
p2465
(lp2466
S'Western Bancshares,NM'
p2467
ag514
asS'7/26/1994'
p2468
(lp2469
S'First Community Bk,Dawsonville'
p2470
ag811
asS'6/26/2007'
p2471
(lp2472
S'Business Finance Capital Corp'
p2473
ag797
asS'7/26/1991'
p2474
(lp2475
S'Hasten Bancorp'
p2476
ag918
asS'7/26/1993'
p2477
(lp2478
S'Alerion Corp'
p2479
ag289
asS'5/1/1998'
p2480
(lp2481
S'M&M Financial Corp,Marion,SC'
p2482
aS'Anchor Financial Corp'
p2483
asS'5/6/1994'
p2484
(lp2485
S'Glendale Bancorporation'
p2486
aS'Mellon Bank Corp,Pittsburgh,PA'
p2487
asS'6/12/1996'
p2488
(lp2489
S'First Sterling Bancorp,PA'
p2490
aS'Prime Bancorp,Philadelphia,PA'
p2491
asS'6/12/1995'
p2492
(lp2493
S'United Whitley Corp'
p2494
ag1295
asS'11/8/2015'
p2495
(lp2496
S'Grayson Bankshares Inc'
p2497
aS'Cardinal Bankshares Corp,VA'
p2498
asS'5/1/1992'
p2499
(lp2500
S'Napa Valley Bancorp'
p2501
aS'Westamerica Bancorp,California'
p2502
asS'5/1/1997'
p2503
(lp2504
S'Cardinal Bancshares,Kentucky'
p2505
aS'Area Bancshares Corp,Kentucky'
p2506
asS'5/14/2008'
p2507
(lp2508
S'Indian Village Bancorp Inc,OH'
p2509
aS'CSB Bancorp Inc,Millersburg,OH'
p2510
asS'2/15/1999'
p2511
(lp2512
S'Grady Holding Co,Cairo,Georgia'
p2513
aS'Capital City Bank Group,FL'
p2514
asS'4/22/2005'
p2515
(lp2516
S'Washington Coml Bancorp,WA'
p2517
aS'Venture Financial Group,WA'
p2518
asS'2/15/1994'
p2519
(lp2520
S'Tampa Bay Banking Co'
p2521
aS'AmSouth Bancorp,Alabama'
p2522
asS'2/15/1995'
p2523
(lp2524
S'Urban National Bank'
p2525
ag1395
asS'12/15/1987'
p2526
(lp2527
S'Decatur Bancshares Inc'
p2528
ag844
asS'12/15/1986'
p2529
(lp2530
S'Texas Commerce Bancshares,TX'
p2531
aS'Chemical New York Corp'
p2532
asS'2/26/1986'
p2533
(lp2534
S'Northwest Nat Bk,Rensselaer,IN'
p2535
ag205
asS'2/26/1985'
p2536
(lp2537
S'Commerce Bancorp Inc,MI'
p2538
aS'Security Bancorp,Southgate,MI'
p2539
asS'12/15/1988'
p2540
(lp2541
S'FBC Bancshares Inc,OH'
p2542
aS'Mid Am Inc,Bowling Green,Ohio'
p2543
asS'5/31/2013'
p2544
(lp2545
g1973
ag1506
asS'5/31/2012'
p2546
(lp2547
S'New England Bancshares Inc,CT'
p2548
ag1273
asS'5/18/2004'
p2549
(lp2550
S'Citizens Bancshares Inc,FL'
p2551
aS'ABC Bancorp,Moultrie,Georgia'
p2552
asS'8/13/1998'
p2553
(lp2554
S'Skylands Community Bank'
p2555
aS'Little Falls Bancorp Inc'
p2556
asS'8/13/1997'
p2557
(lp2558
S'West Coast Bank of Sarasota'
p2559
ag352
asS'8/13/1992'
p2560
(lp2561
S'Fourth National Corp'
p2562
ag412
asS'8/13/1991'
p2563
(lp2564
S'Old National Bancshares Inc'
p2565
ag992
asS'11/20/2002'
p2566
(lp2567
S'First Community Bancshares,IN'
p2568
ag822
asS'11/20/2003'
p2569
(lp2570
S'Allegiant Bancorp,St Louis,MO'
p2571
ag1202
asS'11/20/2000'
p2572
(lp2573
S'Old Kent Finl Corp,Michigan'
p2574
ag844
asS'11/20/2001'
p2575
(lp2576
S'Vista Bancorp,Phillipsburg,NJ'
p2577
ag1040
asS'3/28/2000'
p2578
(lp2579
S'Mid-Coast Bancorp Inc,ME'
p2580
aS'Union Bankshares Co,Ellsworth,'
p2581
asS'7/8/2014'
p2582
(lp2583
S'Great Lakes Finl Resources Inc'
p2584
ag408
asS'1/11/1993'
p2585
(lp2586
S'Tracy Bankshares,Denver,CO'
p2587
aS'California Bancshares Inc'
p2588
asS'1/11/1995'
p2589
(lp2590
S'Montour Bank,Danville,PA'
p2591
ag301
asS'1/11/1994'
p2592
(lp2593
S'Bank of Loudoun'
p2594
aS'Jefferson Bankshares Inc,VA'
p2595
asS'1/11/1996'
p2596
(lp2597
S'Home Interstate Bancorp,CA'
p2598
aS'CU Bancorp,Encino,California'
p2599
asS'6/6/1999'
p2600
(lp2601
S'First Security Corp,Utah'
p2602
ag398
asS'8/28/1995'
p2603
(lp2604
S'Integra Financial Corp'
p2605
ag1202
asS'8/28/1997'
p2606
(lp2607
S'Republic National Bancorp,AZ'
p2608
ag761
asS'8/29/2013'
p2609
(lp2610
S'F&M Bancorporation Inc'
p2611
ag815
asS'9/5/1989'
p2612
(lp2613
S'CSB Inc'
p2614
aS'INB Financial Corp'
p2615
asS'8/28/1998'
p2616
(lp2617
S'Ready State Bank of Hialeah'
p2618
ag293
asS'6/6/1996'
p2619
(lp2620
S'Cupertino National Bancorp,CA'
p2621
ag1707
asS'11/22/2004'
p2622
(lp2623
S'First Natl Banks-West Co,WY'
p2624
ag249
asS'11/22/2005'
p2625
(lp2626
S'Neighbors Bancshares Inc,GA'
p2627
ag1481
asS'2/3/2003'
p2628
(lp2629
S'Abrams Centre Natl Bank,TX'
p2630
ag36
asS'12/12/2005'
p2631
(lp2632
S'Bank Calumet,Hammond,Indiana'
p2633
ag408
asS'4/25/1994'
p2634
(lp2635
S'Glendale Federal Bk-FL Branch'
p2636
ag1003
asS'12/12/2000'
p2637
(lp2638
S'Bay Bancshares,Laporte,Texas'
p2639
ag432
asS'7/6/1994'
p2640
(lp2641
S'Wedge Bank,Alton,IL'
p2642
ag992
asS'12/12/2002'
p2643
(lp2644
S'First Colony Bancshares Inc,GA'
p2645
aS'Main Street Banks Inc,GA'
p2646
asS'12/12/2003'
p2647
(lp2648
S'GA Financial Inc,Pittsburgh,PA'
p2649
ag383
asS'9/26/2000'
p2650
(lp2651
S'First Bankshares of West Point'
p2652
ag2514
asS'9/26/2001'
p2653
(lp2654
S'Oregon Business Bank,Oswego,OR'
p2655
aS'Banner Corp'
p2656
asS'9/26/2002'
p2657
(lp2658
S'AllFirst Financial Inc'
p2659
aS'M&T Bank Corp,Buffalo,New York'
p2660
asS'9/26/2003'
p2661
(lp2662
S'Business Bancorp,California'
p2663
ag653
asS'9/26/2007'
p2664
(lp2665
S'Washington Banking Co'
p2666
ag1578
asS'5/15/1991'
p2667
(lp2668
S'AmeriTrust Corp,Cleveland,OH'
p2669
ag1870
asS'5/15/1997'
p2670
(lp2671
S'Josephine Bancshares Inc,KY'
p2672
aS'Citizens National Corp'
p2673
asS'1/9/1985'
p2674
(lp2675
S'Community Bancshares Corp,NJ'
p2676
ag321
asS'5/15/1998'
p2677
(lp2678
S'VB&T Banchshares,Valdosta,GA'
p2679
ag237
asS'6/9/2005'
p2680
(lp2681
S'Pacific Liberty Bank,CA'
p2682
ag797
asS'1/22/2004'
p2683
(lp2684
S'Local Financial Corp,OK'
p2685
ag273
asS'11/25/2003'
p2686
(lp2687
S'Foxborough Savings Bank,MA'
p2688
ag896
asS'11/3/2014'
p2689
(lp2690
S'Monarch Community Bancorp Inc'
p2691
ag1291
asS'11/25/2008'
p2692
(lp2693
S'Citizens Finl Grp Inc-IN Ret'
p2694
ag178
asS'4/27/2015'
p2695
(lp2696
S'Nuvo Bank & Trust Co'
p2697
ag1999
asS'4/27/2011'
p2698
(lp2699
S'Bank of Granite Corp'
p2700
aS'FNB United Corp'
p2701
asS'12/5/2011'
p2702
(lp2703
S'SE Financial Corp'
p2704
aS'Beneficial Mutual Bancorp Inc'
p2705
asS'5/14/1996'
p2706
(lp2707
S'United Mizrahi Bank & Trust'
p2708
aS'Commercial Bank of New York'
p2709
asS'9/18/1997'
p2710
(lp2711
S'Richmond Bancorp,Richmond,IL'
p2712
aS'State Finl Svcs Corp,WI'
p2713
asS'9/18/1992'
p2714
(lp2715
S'Meritor Savings FA'
p2716
ag56
asS'12/18/1995'
p2717
(lp2718
S'First Mercantile Natl Bank,FL'
p2719
ag237
asS'12/18/1991'
p2720
(lp2721
S'Evergreen Bancorp Inc'
p2722
ag249
asS'2/1/1993'
p2723
(lp2724
S'M&D Holding Co'
p2725
ag1166
asS'5/11/1994'
p2726
(lp2727
S'Marshall & Illsley-Middleton,'
p2728
ag1885
asS'12/18/1998'
p2729
(lp2730
S'Ramapo Financial Corp'
p2731
ag375
asS'1/13/2006'
p2732
(lp2733
S'Albemarle First Bk,VA'
p2734
aS'Premier Community Bankshares'
p2735
asS'8/11/2006'
p2736
(lp2737
S'Maplesville Bancorp,Clanton,AL'
p2738
aS'SouthCrest Finl Grp Inc'
p2739
asS'8/11/2003'
p2740
(lp2741
S'Troy Financial Corp,Troy,NY'
p2742
ag225
asS'6/11/2001'
p2743
(lp2744
S'MetroWest Bank'
p2745
ag896
asS'6/11/2003'
p2746
(lp2747
S'Hacienda Bank,Santa Maria,CA'
p2748
ag851
asS'5/10/1996'
p2749
(lp2750
S'City National Bk,Whitehouse,TX'
p2751
ag619
asS'6/2/1995'
p2752
(lp2753
S'National Commerce Corp'
p2754
ag96
asS'6/2/1994'
p2755
(lp2756
S'LBO Bancorp Inc'
p2757
ag2197
asS'6/2/1997'
p2758
(lp2759
S'PTC Bancorp,Brookville,Indiana'
p2760
aS'Indiana United Bancorp,IN'
p2761
asS'5/10/1999'
p2762
(lp2763
S'Valley National Corp,CA'
p2764
ag761
asS'6/2/1993'
p2765
(lp2766
S'Firestone Bank,Lisbon,Ohio'
p2767
ag707
asS'6/2/1992'
p2768
(lp2769
S'Financial Dominion of KY Corp'
p2770
ag159
asS'6/4/2009'
p2771
(lp2772
S'American Home Bank,Chicago,IL'
p2773
aS'Bancorp Inc'
p2774
asS'10/3/2014'
p2775
(lp2776
S'Florida Bank Group Inc'
p2777
ag1321
asS'2/5/1991'
p2778
(lp2779
S'Promenade Bancshares Inc'
p2780
ag147
asS'9/15/2004'
p2781
(lp2782
S'Prospect Bancshares Inc,OH'
p2783
ag281
asS'10/29/1992'
p2784
(lp2785
S'Hi-Bancorp Inc,GNP Bancorp Inc'
p2786
aS'First Colonial Bankshares,IL'
p2787
asS'10/29/1991'
p2788
(lp2789
S'Northeast WI Finl Services Inc'
p2790
ag1885
asS'10/29/1997'
p2791
(lp2792
S'Pittsburg Bancshares Inc,KS'
p2793
ag2351
asS'10/29/1996'
p2794
(lp2795
S'First-Knox Banc Corp'
p2796
ag277
asS'9/28/2004'
p2797
(lp2798
S'Union Bank of Florida,FL'
p2799
ag80
asS'2/21/1989'
p2800
(lp2801
S'Metropolitan Bancorp Inc'
p2802
ag205
asS'11/30/2004'
p2803
(lp2804
S'Century National Bank,FL'
p2805
aS'Seacoast Bkg Corp of Florida'
p2806
asS'3/8/1994'
p2807
(lp2808
S'Bank of South County,St Louis'
p2809
aS'Capital Bancorporation Inc'
p2810
asS'3/8/1990'
p2811
(lp2812
S'American Interstate Bank'
p2813
ag964
asS'3/8/1993'
p2814
(lp2815
S'Gulf & Southern Financial Corp'
p2816
ag432
asS'5/26/1993'
p2817
(lp2818
S'Mid States Bancshares Inc'
p2819
ag205
asS'12/21/1993'
p2820
(lp2821
S'Mid-Atlantic Bankcorp'
p2822
ag217
asS'12/21/1992'
p2823
(lp2824
S'Pilgrim State Bank'
p2825
ag1395
asS'12/21/1995'
p2826
(lp2827
S'Southern Banking Corp'
p2828
ag80
asS'5/26/1994'
p2829
(lp2830
S'Kilgore First Bancorp Inc'
p2831
ag619
asS'12/21/1999'
p2832
(lp2833
S'Natl Bancorp Of Alaska Inc'
p2834
ag1357
asS'5/26/1998'
p2835
(lp2836
S'Republic Bank'
p2837
ag2024
asS'11/24/2003'
p2838
(lp2839
S'Sylvester Banking Co,GA'
p2840
aS'Southwest Georgia Financial,GA'
p2841
asS'11/7/2013'
p2842
(lp2843
S'Citizens State Bankshares'
p2844
ag387
asS'10/21/1985'
p2845
(lp2846
S'City National Bank of Laredo'
p2847
aS'Natl Bancshares Corp of TX,TX'
p2848
asS'4/24/2007'
p2849
(lp2850
S'Desert Community Bk,California'
p2851
ag1438
asS'12/11/1985'
p2852
(lp2853
S'Security National Corp'
p2854
ag888
asS'8/27/2014'
p2855
(lp2856
S'Phoenix Bancorp'
p2857
ag1373
asS'12/11/1987'
p2858
(lp2859
S'Natl Bk Commerce,Williamson,WV'
p2860
aS'Key Centurion Bancshares,WV'
p2861
asS'4/24/2000'
p2862
(lp2863
S'FSB Bancorp'
p2864
aS'IBT Bancorp Inc,Pennsylvania'
p2865
asS'8/2/1989'
p2866
(lp2867
S'Concord Commercial Bank'
p2868
aS'Mission Valley Bancorp'
p2869
asS'7/28/1995'
p2870
(lp2871
S'National American Bancorp Inc'
p2872
ag1014
asS'4/15/1994'
p2873
(lp2874
S'First Park Ridge Corp'
p2875
ag416
asS'10/13/1987'
p2876
(lp2877
S'Ultra Bancorp,Bridgewater,NJ'
p2878
aS'Summit Bancorporation'
p2879
asS'10/13/1986'
p2880
(lp2881
S'Roswell Bank, Georgia'
p2882
ag56
asS'4/15/1993'
p2883
(lp2884
S'First Western Bank NA,San Dieg'
p2885
aS'Peninsula Bank of San Diego,CA'
p2886
asS'5/7/2006'
p2887
(lp2888
S'Golden West Financial Corp,CA'
p2889
ag1310
asS'5/7/2001'
p2890
(lp2891
S'FVNB Corp,Victoria,Texas'
p2892
ag36
asS'5/7/2002'
p2893
(lp2894
S'Three Rivers Bancorp Inc,PA'
p2895
ag281
asS'5/7/2003'
p2896
(lp2897
S'Peoples Bankcorp Inc,NY'
p2898
ag449
asS'7/20/2001'
p2899
(lp2900
S'Union Financial Group Ltd'
p2901
ag2024
asS'7/20/2004'
p2902
(lp2903
S'Ripley National Bank,OH'
p2904
aS'Oak Hill Finl Inc,Jackson,OH'
p2905
asS'7/20/2007'
p2906
(lp2907
S'Oak Hill Finl Inc,Jackson,OH'
p2908
ag151
asS'9/11/2006'
p2909
(lp2910
S"Stockmen's Bancorp,Kingman,AZ"
p2911
ag398
asS'9/11/2003'
p2912
(lp2913
S'Round Lake Bankcorp Inc,IL'
p2914
aS'Nrthn States Finl Corp'
p2915
asS'3/20/1992'
p2916
(lp2917
S'Citizens First Bank'
p2918
ag546
asS'3/20/1990'
p2919
(lp2920
S'Santa Clarita National Bank'
p2921
ag309
asS'3/20/1997'
p2922
(lp2923
S'US Bancorp,Portland,Oregon'
p2924
ag1757
asS'3/20/1996'
p2925
(lp2926
S'Todays Bancorp Inc'
p2927
ag992
asS'2/22/2002'
p2928
(lp2929
S'Texas Guaranty Natl Bk,Texas'
p2930
ag36
asS'6/6/2011'
p2931
(lp2932
S'Gateway Bancorp,Cerritos,'
p2933
ag167
asS'2/22/2001'
p2934
(lp2935
S'American Bancorporation Inc,WV'
p2936
ag151
asS'3/24/1988'
p2937
(lp2938
S'Charter Bank Grp,Northfield,IL'
p2939
ag477
asS'3/29/1993'
p2940
(lp2941
S'Orange Banking Corp'
p2942
ag2522
asS'11/16/2015'
p2943
(lp2944
S'High Point Bank Corp'
p2945
ag1506
asS'9/5/2006'
p2946
(lp2947
S'Southern Bancorp Inc,GA'
p2948
ag1835
asS'7/13/1994'
p2949
(lp2950
S'NBA Holding Company'
p2951
ag40
asS'6/23/2006'
p2952
(lp2953
S'Farnsworth Bancorp Inc'
p2954
aS'Sterling Banks Inc'
p2955
asS'9/24/2008'
p2956
(lp2957
S'Gateway Financial Holdings Inc'
p2958
aS'Hampton Roads Bankshares Inc'
p2959
asS'2/5/1997'
p2960
(lp2961
S'First Central Corp,Searcy,AR'
p2962
ag619
asS'10/15/2012'
p2963
(lp2964
S'First Associations Bank,Dallas'
p2965
aS'Pacific Premier Bancorp Inc'
p2966
asS'12/10/2007'
p2967
(lp2968
S'LongLeaf Community Bank,NC'
p2969
aS'Four Oaks Fincorp Inc'
p2970
asS'4/2/2004'
p2971
(lp2972
g1710
ag225
asS'8/20/1992'
p2973
(lp2974
S'Lincoln Financial Corp,IN'
p2975
ag1166
asS'4/2/2009'
p2976
(lp2977
S'TriStone Cmnty Bk,NC'
p2978
ag465
asS'3/7/2001'
p2979
(lp2980
S'Citrus Financial Services Inc'
p2981
aS'CIB Marine Bancshares Inc'
p2982
asS'10/18/2012'
p2983
(lp2984
S'Luzerne National Bank Corp'
p2985
aS'Penns Woods Bancorp Inc,PA'
p2986
asS'8/12/1985'
p2987
(lp2988
S'Merrill Bankshares Co'
p2989
ag265
asS'8/6/1985'
p2990
(lp2991
S'General Bancshares Corp'
p2992
ag878
asS'8/6/1987'
p2993
(lp2994
S'American SW Bancshares El Paso'
p2995
aS'Sunwest Finl Svcs,Albuquerque'
p2996
asS'1/26/2011'
p2997
(lp2998
S'Abington Bancorp,Jenkintown,PA'
p2999
ag4
asS'1/29/2014'
p3000
(lp3001
S'First Southern Bancorp Inc'
p3002
ag1423
asS'1/13/2014'
p3003
(lp3004
S'Teche Holding Co,New Iberia,LA'
p3005
ag1321
asS'4/13/1987'
p3006
(lp3007
S'County Bancorp,Lyndhurst,NJ'
p3008
aS'Midlantic Corp'
p3009
asS'12/10/1985'
p3010
(lp3011
S'NewCentury Bank Corp,MI'
p3012
ag416
asS'9/14/1987'
p3013
(lp3014
S'First Coml Bancshares,LA'
p3015
ag52
asS'12/2/2007'
p3016
(lp3017
S'Fidelity & Trust Finl Corp,MD'
p3018
aS'Eagle Bancorp Inc,Bethesda,MD'
p3019
asS'12/2/2004'
p3020
(lp3021
S'Shrewsbury Bancorp,NJ'
p3022
ag375
asS'12/2/2002'
p3023
(lp3024
S'Kentucky Bancshares Inc,KY'
p3025
ag60
asS'12/2/2003'
p3026
(lp3027
S'Republic Bancshares Inc,FL'
p3028
ag491
asS'1/6/2015'
p3029
(lp3030
S'C Financial Corp'
p3031
ag590
asS'9/9/1998'
p3032
(lp3033
S'First Bolivar Capital Corp'
p3034
aS'First M&F Corp,Kosciusko,MS'
p3035
asS'9/9/1994'
p3036
(lp3037
S'Atlantic Community Bancorp Inc'
p3038
ag719
asS'9/9/1997'
p3039
(lp3040
S'United American Holding Corp'
p3041
ag80
asS'12/3/2006'
p3042
(lp3043
S'Mellon Financial,Pittsburgh,PA'
p3044
ag786
asS'12/3/2001'
p3045
(lp3046
S'First Mercantile Bk of Dallas'
p3047
ag80
asS'9/9/1993'
p3048
(lp3049
S'Pacific Western Bancshares,CA'
p3050
ag139
asS'9/9/1992'
p3051
(lp3052
S'Multibank Financial Corp'
p3053
ag1280
asS'1/21/1993'
p3054
(lp3055
S'Mickler Corp'
p3056
ag2522
asS'1/21/1997'
p3057
(lp3058
S'Old North State Bank,NC'
p3059
aS'LSB Bancshares,Lexington,NC'
p3060
asS'10/12/2005'
p3061
(lp3062
S'Crockett County Bancshares,TN'
p3063
ag3035
asS'1/21/1998'
p3064
(lp3065
S'Merchants Bancshares Inc,TX'
p3066
ag293
asS'10/15/2010'
p3067
(lp3068
S'Fort Orange Financial Corp'
p3069
ag1831
asS'7/26/1983'
p3070
(lp3071
S'Cullen/Frost Bankers Inc'
p3072
aS'First City Bancorp of Texas'
p3073
asS'5/6/1987'
p3074
(lp3075
S'CitizensTrust Bancorp Inc,MI'
p3076
aS'Trustcorp Inc,Toledo,Ohio'
p3077
asS'2/8/1988'
p3078
(lp3079
S'Northwestern Commercial Bk,WA'
p3080
ag2367
asS'6/12/1989'
p3081
(lp3082
S'Steiner Bank,Birmingham,AL'
p3083
ag293
asS'11/26/1996'
p3084
(lp3085
S'Peoples Bank of Unity,PA'
p3086
ag1118
asS'10/23/2001'
p3087
(lp3088
S'Quitman Bancorp Inc'
p3089
aS'Colony Bankcorp,Fitzgerald,GA'
p3090
asS'11/26/1991'
p3091
(lp3092
S'Omni Capital Group Inc'
p3093
aS'Security Capital Bancorp'
p3094
asS'11/21/2000'
p3095
(lp3096
S'Security Banc Corp,OH'
p3097
ag277
asS'7/11/2000'
p3098
(lp3099
S'CNB Holdings Inc,Alpharetta,GA'
p3100
ag1784
asS'5/25/2000'
p3101
(lp3102
S'First SW Bk,Frederick,OK'
p3103
aS'BancFirst Corp'
p3104
asS'5/25/2005'
p3105
(lp3106
S'Equinox Bk,Pembroke Pines,FL'
p3107
aS'Northwest Bancorp,Warren,PA'
p3108
asS'5/25/2006'
p3109
(lp3110
S'AmSouth Bancorp,Alabama'
p3111
aS'Regions Financial Corp'
p3112
asS'2/26/1997'
p3113
(lp3114
S'Glendale Co-Operative Bank,MA'
p3115
aS'MASSBank Corp'
p3116
asS'2/26/1990'
p3117
(lp3118
S'Farmers & Citizens State Bk,WV'
p3119
ag2861
asS'2/26/1992'
p3120
(lp3121
S'Cornerstone Bancshares Inc'
p3122
ag147
asS'2/26/1993'
p3123
(lp3124
S'First American Metro Corp'
p3125
ag56
asS'11/21/2005'
p3126
(lp3127
S'First Natl Bank of Newport,PA'
p3128
aS'Orrstown Financial Svcs Inc'
p3129
asS'2/26/1998'
p3130
(lp3131
S'Trustbank Financial Corp'
p3132
ag1966
asS'5/31/2006'
p3133
(lp3134
S'Royal Palm Bancorp Inc,Naples,'
p3135
aS'Mercantile Bancorp Inc'
p3136
asS'5/31/2007'
p3137
(lp3138
S'Eagle Fidelity Inc'
p3139
ag1946
asS'5/31/2001'
p3140
(lp3141
S'First Gaston Bank of North'
p3142
aS'Catawba Valley Bancshares'
p3143
asS'5/31/2002'
p3144
(lp3145
S'Cardinal Bankshares Corp,VA'
p3146
ag532
asS'3/5/1986'
p3147
(lp3148
S'BankAmerica Corp'
p3149
ag473
asS'11/20/2015'
p3150
(lp3151
S'Fox River Valley Bancorp Inc'
p3152
aS'County Bancorp Inc'
p3153
asS'1/20/1997'
p3154
(lp3155
S'Shawnee State Bank,Kansas'
p3156
ag2351
asS'1/20/1993'
p3157
(lp3158
S'Nichols Hills Bancorp'
p3159
ag412
asS'1/20/1992'
p3160
(lp3161
S'First American Bank of Georgia'
p3162
ag432
asS'9/5/1995'
p3163
(lp3164
S'Bank South Corp,Atlanta,GA'
p3165
ag1122
asS'9/5/1997'
p3166
(lp3167
S'Oswego County Svgs Bk,NY'
p3168
aS'Oswego City Svgs Bk,Oswego,NY'
p3169
asS'8/10/1989'
p3170
(lp3171
S'First National Bk,Wyoming,PA'
p3172
aS'First Eastern Corp,PA'
p3173
asS'9/13/2013'
p3174
(lp3175
S'Rogers Bancshares Inc,AR'
p3176
aS'Simmons First Natl Corp'
p3177
asS'9/13/2012'
p3178
(lp3179
S'Citizens Republic Bancorp Inc'
p3180
ag892
asS'9/13/2011'
p3181
(lp3182
S'Texas Bankers Inc,Austin,Texas'
p3183
ag36
asS'9/13/2010'
p3184
(lp3185
S'DG Bancorp Inc'
p3186
aS'BankFinancial Corp,Il'
p3187
asS'6/7/1994'
p3188
(lp3189
S'Hinton Financial Corp'
p3190
aS'City Holding Co,Charleston,WV'
p3191
asS'6/7/1995'
p3192
(lp3193
S'Jessamine First Federal'
p3194
aS'Bourbon Bancshares Inc,KY'
p3195
asS'6/7/1999'
p3196
(lp3197
S'Mahoning National Bancorp'
p3198
ag281
asS'11/22/2015'
p3199
(lp3200
S'American Chartered Bancorp Inc'
p3201
aS'MB Financial Inc'
p3202
asS'12/9/2013'
p3203
(lp3204
S'Bancshares Inc'
p3205
ag285
asS'8/24/2000'
p3206
(lp3207
S'Millennium Bank,San Francisco'
p3208
ag100
asS'8/24/2007'
p3209
(lp3210
S'Centennial Bancshares Inc,AR'
p3211
ag1222
asS'1/2/2001'
p3212
(lp3213
S'First National Bancorp Inc'
p3214
ag1054
asS'3/1/1988'
p3215
(lp3216
S'Grand Bancshares Inc,Dallas,TX'
p3217
ag139
asS'3/1/1989'
p3218
(lp3219
S'Pickens County Bancshares Inc'
p3220
ag1673
asS'4/9/1990'
p3221
(lp3222
S"People's Bk of Central VA"
p3223
ag683
asS'1/9/1996'
p3224
(lp3225
S'Community State Bank,Wisconsin'
p3226
ag1747
asS'5/15/1986'
p3227
(lp3228
S'Nashville CityBank,Tennessee'
p3229
ag20
asS'8/19/2008'
p3230
(lp3231
S'Bank of the San Juans Bancorp'
p3232
ag249
asS'5/15/1989'
p3233
(lp3234
S'SBH Corp'
p3235
aS'Pinnacle Banc Grp,Oak Brook,IL'
p3236
asS'8/19/2003'
p3237
(lp3238
S'Abbeville Capital Corp,SC'
p3239
aS'Community Capital Corp,SC'
p3240
asS'1/9/1998'
p3241
(lp3242
S'Fort Wayne Natl Corp,Indiana'
p3243
ag1202
asS'11/3/2000'
p3244
(lp3245
S'Prime Bank,Los Angeles,CA'
p3246
ag1438
asS'11/3/2003'
p3247
(lp3248
S'Southern Finl Bancorp Inc,VA'
p3249
ag1942
asS'12/19/2012'
p3250
(lp3251
S'Bancorp Inc'
p3252
aS'SY Bancorp Inc,Louisville,KY'
p3253
asS'11/3/2009'
p3254
(lp3255
S'First Keystone Financial Inc'
p3256
ag1992
asS'8/14/2013'
p3257
(lp3258
S'Savannah River Financial Corp'
p3259
ag115
asS'8/14/2015'
p3260
(lp3261
S'Southcoast Financial Corp,SC'
p3262
ag1506
asS'4/27/2006'
p3263
(lp3264
S'Laurel Capital Group Inc'
p3265
ag383
asS'1/17/1992'
p3266
(lp3267
S'Flagship Financial Corp'
p3268
ag420
asS'1/17/1990'
p3269
(lp3270
S'Peoples Bancorp,Rocky Mount,NC'
p3271
aS'Planters Corp'
p3272
asS'1/17/1996'
p3273
(lp3274
S'Southern Arizona Bancorp Inc'
p3275
ag398
asS'4/3/1986'
p3276
(lp3277
S'KBT Corp,Madisonville,KY'
p3278
aS'Liberty United Bancorp Inc,KY'
p3279
asS'4/3/1985'
p3280
(lp3281
S'Undisclosed Philadelphia Bank'
p3282
aS'Equimark Corp,Pittsburgh,PA'
p3283
asS'6/18/2014'
p3284
(lp3285
S'Valley Green Bank'
p3286
aS'Univest Corp of Pennsylvania'
p3287
asS'8/3/2006'
p3288
(lp3289
S'ONB Corp,Clifton Springs,NY'
p3290
ag449
asS'8/3/2005'
p3291
(lp3292
S'Asian American Bank & Trust,MA'
p3293
ag2162
asS'8/29/2006'
p3294
(lp3295
S'Old Florida Bankshares Inc,FL'
p3296
ag2093
asS'4/2/2015'
p3297
(lp3298
S'Suburban Illinois Bancorp,IL'
p3299
ag859
asS'2/1/1988'
p3300
(lp3301
S'Taney County Bancorp'
p3302
aS'Landmark Bancshares Corp'
p3303
asS'4/26/1995'
p3304
(lp3305
S'DSB Bancshares Inc'
p3306
ag3177
asS'9/15/1999'
p3307
(lp3308
g2174
ag2175
asS'4/26/1993'
p3309
(lp3310
S'Grange Natl Bk,New Milford PA'
p3311
ag971
asS'4/30/2012'
p3312
(lp3313
S'Central Bancorp Inc,MA'
p3314
ag1247
asS'9/15/1992'
p3315
(lp3316
S'Buffalo Bank'
p3317
ag3191
asS'9/25/2003'
p3318
(lp3319
S'Caledonia Finl Corp,MI'
p3320
ag1291
asS'9/25/2002'
p3321
(lp3322
S'United Financial Holdings Inc'
p3323
ag1343
asS'10/20/2014'
p3324
(lp3325
g486
aS'ServisFirst Bancshares Inc'
p3326
asS'10/20/2015'
p3327
(lp3328
S'KeyWorth Bank,Atlanta,Georgia'
p3329
aS'Renasant Corp'
p3330
asS'5/3/2004'
p3331
(lp3332
S'Central Bank of Houston-Br(2)'
p3333
ag979
asS'1/23/2007'
p3334
(lp3335
S'First Haralson Corp'
p3336
aS'WGNB Corp'
p3337
asS'1/23/2006'
p3338
(lp3339
S'Fulton Bancshares Corp ,pa'
p3340
aS'Franklin Financial Services'
p3341
asS'1/23/2004'
p3342
(lp3343
S'Union Planters Corp,Memphis,TN'
p3344
ag3112
asS'7/22/2014'
p3345
(lp3346
S'Madison Bancorp Inc'
p3347
aS'Codorus Valley Bancorp Inc'
p3348
asS'3/9/2007'
p3349
(lp3350
S'Worth Bancorp Inc,Texas'
p3351
ag739
asS'9/23/1986'
p3352
(lp3353
g1380
aS'Marine Midland Banks Inc'
p3354
asS'3/27/1997'
p3355
(lp3356
S'Bk of Mecklenburg,Charlotte,NC'
p3357
ag719
asS'3/27/1995'
p3358
(lp3359
S'Putnam Trust Co'
p3360
ag786
asS'3/27/1992'
p3361
(lp3362
S'Magna Bank of Sthrn Missouri'
p3363
aS'Capital Bancorp'
p3364
asS'3/27/1991'
p3365
(lp3366
S'Morgan Community Bancorp,IL'
p3367
ag416
asS'6/4/2002'
p3368
(lp3369
S'PFSB Bancorp Inc,Palmyra'
p3370
aS'First Federal Bancshares,IL'
p3371
asS'6/4/2004'
p3372
(lp3373
S'Wayne Bancorp Inc,Wooster,OH'
p3374
ag1202
asS'3/14/1996'
p3375
(lp3376
S'CitNat Bancorp Inc,Urbana,OH'
p3377
ag1723
asS'3/27/1998'
p3378
(lp3379
S'CNB Holding Co'
p3380
ag80
asS'6/4/2007'
p3381
(lp3382
S'Cmnty Bk & Tr Co,Wolfeboro,NH'
p3383
ag765
asS'2/23/2007'
p3384
(lp3385
S'Bk of Chickamauga,Chickamauga'
p3386
ag2739
asS'3/11/1993'
p3387
(lp3388
S'HomeTown Bancorp,Myersville'
p3389
aS'First United Corp,Oakland,MD'
p3390
asS'3/11/1991'
p3391
(lp3392
S'Ameriway Bank NA'
p3393
ag147
asS'5/26/1989'
p3394
(lp3395
S'First Security Bk,Hillsboro,OH'
p3396
ag844
asS'3/11/1994'
p3397
(lp3398
S'Midlothian State Bank'
p3399
aS'Heritage Financial Services'
p3400
asS'4/24/2014'
p3401
(lp3402
S'Idaho Bancorp'
p3403
ag2656
asS'8/27/2007'
p3404
(lp3405
S'Carolina National Corp'
p3406
aS'First National Bancshares Inc'
p3407
asS'10/11/2007'
p3408
(lp3409
S"Slade's Ferry Bancorp,MA"
p3410
ag1247
asS'3/14/1999'
p3411
(lp3412
S'BankBoston Corp,Boston,MA'
p3413
ag2189
asS'2/27/2012'
p3414
(lp3415
S'American State Financial Corp'
p3416
ag815
asS'3/3/2015'
p3417
(lp3418
S'Patapsco Bancorp Inc'
p3419
aS'Howard Bancorp Inc'
p3420
asS'3/20/1985'
p3421
(lp3422
g3214
ag432
asS'4/19/2000'
p3423
(lp3424
S'Rockingham Heritage Bank'
p3425
aS'Marathon Financial Corp'
p3426
asS'4/19/2006'
p3427
(lp3428
S'Homestead Bank,Suwanee,GA'
p3429
ag1481
asS'4/19/2005'
p3430
(lp3431
S'Gibraltar Financial Corp,FL'
p3432
aS'Boston Private Financial Hldg'
p3433
asS'1/16/2003'
p3434
(lp3435
S'Premier Bancorp Inc'
p3436
ag217
asS'1/16/2001'
p3437
(lp3438
S'Guaranty Bank NA,Wilkes-Barre,'
p3439
aS'Sun Bancorp Inc,Selinsgrove,PA'
p3440
asS'11/16/2004'
p3441
(lp3442
S'PennRock Finl Svcs Corp,PA'
p3443
aS'Cmnty Banks Inc,Harrisburg,PA'
p3444
asS'1/16/2007'
p3445
(lp3446
S'Morgan Bancorp Inc,Hudson,OH'
p3447
aS'LNB Bancorp Inc'
p3448
asS'11/5/1999'
p3449
(lp3450
S'MegaBank Financial Corp'
p3451
ag514
asS'9/14/1992'
p3452
(lp3453
S'First National Bak of Flora,IL'
p3454
ag992
asS'11/5/1993'
p3455
(lp3456
S'Woodland Bancorp Inc,Tulsa,OK'
p3457
ag878
asS'11/5/1992'
p3458
(lp3459
S'NorthPark National Corp'
p3460
ag139
asS'6/29/1994'
p3461
(lp3462
S'Presidential Holding Co'
p3463
ag416
asS'7/29/1985'
p3464
(lp3465
S'American Bancorp,Newport,KY'
p3466
ag844
asS'6/29/1999'
p3467
(lp3468
S'Southern Jersey Bancorp,NJ'
p3469
ag1395
asS'6/29/1998'
p3470
(lp3471
S'Poinsett Financial Corp'
p3472
ag1458
asS'7/29/1988'
p3473
(lp3474
S'Suisun Valley Bank'
p3475
aS'Napa Valley Bancorp'
p3476
asS'10/21/2015'
p3477
(lp3478
S'Heritage Bankshares Inc,VA'
p3479
aS'Southern BancShares(NC)Inc'
p3480
asS'1/26/2000'
p3481
(lp3482
S'Hanover Bancorp Inc,Hanover,PA'
p3483
ag197
asS'1/26/2001'
p3484
(lp3485
S'Maine Bank Corp,Portland,Maine'
p3486
ag765
asS'8/6/1990'
p3487
(lp3488
S'Banks of Iowa Inc'
p3489
ag221
asS'8/6/1997'
p3490
(lp3491
S'GSB Investments,Gainesville,FL'
p3492
ag514
asS'8/6/1996'
p3493
(lp3494
S'Security National Bank,TX'
p3495
ag619
asS'1/26/2007'
p3496
(lp3497
S'Premier Community Bankshares'
p3498
ag209
asS'7/21/2006'
p3499
(lp3500
S'Cactus Commerce Bank,Glendale'
p3501
aS'Community Bancorp NV'
p3502
asS'8/6/1998'
p3503
(lp3504
S'Arkansas Banking,Jonesboro,AR'
p3505
ag237
asS'7/21/2003'
p3506
(lp3507
S'MainBancorp Inc,Austin,TX'
p3508
ag36
asS'12/10/1998'
p3509
(lp3510
S'First Philson Financial Corp'
p3511
ag1531
asS'12/10/1997'
p3512
(lp3513
S'Haymarket Cooperative Bank'
p3514
aS'Century Bancorp Inc,Medford,MA'
p3515
asS'12/10/1996'
p3516
(lp3517
S'Farmers Bk of Mardela Springs'
p3518
ag1148
asS'12/10/1990'
p3519
(lp3520
S'JSB Bancorp'
p3521
ag1768
asS'6/19/1989'
p3522
(lp3523
S'Trustcorp Inc,Toledo,Ohio'
p3524
ag1870
asS'9/14/1994'
p3525
(lp3526
S'First Natl Bk of Bay City,TX'
p3527
ag1166
asS'10/25/2004'
p3528
(lp3529
S'Clyde Financial Corp'
p3530
ag12
asS'10/25/2000'
p3531
(lp3532
S'Interbancorp Inc,Duvall,WA'
p3533
ag1578
asS'2/9/1996'
p3534
(lp3535
S'Bank of Weirton,Weirton,WV'
p3536
ag151
asS'6/19/1985'
p3537
(lp3538
S'Citizens Natl Bk & Tr,Kansas'
p3539
ag412
asS'6/19/1986'
p3540
(lp3541
S'First Bank Capital, Tupelo, MS'
p3542
ag2197
asS'11/14/1996'
p3543
(lp3544
S'Merchants Bancshares Inc,MS'
p3545
ag461
asS'11/14/1995'
p3546
(lp3547
S'Smoky Mtn Bancorp,Gatlinburg'
p3548
ag690
asS'10/25/2003'
p3549
(lp3550
S'Harbor Bank,Newport News,VA'
p3551
ag1140
asS'10/12/2010'
p3552
(lp3553
S'Rome Bancorp Inc,Rome,NY'
p3554
aS'Berkshire Hills Bancorp Inc'
p3555
asS'7/15/1999'
p3556
(lp3557
S'Minden Bancshares Inc,LA'
p3558
ag237
asS'10/28/2013'
p3559
(lp3560
S'Eaton Natl Bnk&Trst,Eaton,Ohio'
p3561
aS'LCNB Corp'
p3562
asS'6/20/2003'
p3563
(lp3564
S'Lakes Region Bancorp,IL'
p3565
ag2713
asS'7/15/1993'
p3566
(lp3567
S'First Financial Services Inc'
p3568
ag293
asS'4/18/2000'
p3569
(lp3570
S'Heritage Bancorp Inc,McLean,VA'
p3571
aS'Cardinal Financial Corp'
p3572
asS'7/15/1991'
p3573
(lp3574
S'Manufacturers Hanover Corp'
p3575
ag743
asS'7/15/1996'
p3576
(lp3577
S'North Side Savings Bank,NY'
p3578
ag487
asS'2/8/1993'
p3579
(lp3580
S'Midwest Bancorporation,Hays,KS'
p3581
ag2351
asS'8/7/1998'
p3582
(lp3583
S'Southeast Bancorp Inc,KY'
p3584
ag293
asS'2/8/1996'
p3585
(lp3586
S'Cedar Creek Bancshares Inc,TX'
p3587
ag619
asS'8/7/1995'
p3588
(lp3589
S'FirsTier Financial Inc'
p3590
ag119
asS'8/7/1997'
p3591
(lp3592
S'1st United Bancorp,FL'
p3593
ag16
asS'8/27/2015'
p3594
(lp3595
S'Mother Lode Bank,Sonora,CA'
p3596
aS'Oak Valley Bancorp'
p3597
asS'5/27/1998'
p3598
(lp3599
S'Southern Bancshares,Illinois'
p3600
ag178
asS'3/4/1992'
p3601
(lp3602
S'Puget Sound Bancorp,Tacoma,WA'
p3603
ag2063
asS'3/4/1994'
p3604
(lp3605
S'Plano Bancshares Inc'
p3606
aS'First National Bancorp Inc,IL'
p3607
asS'8/31/1989'
p3608
(lp3609
S'NBWC Corp'
p3610
ag1343
asS'3/4/1999'
p3611
(lp3612
S'FirstBancorp Inc,Beaufort,SC'
p3613
aS'First National Corp,SC'
p3614
asS'6/23/2015'
p3615
(lp3616
S'Fairfield Finl Hldg Corp'
p3617
aS'Northwest Bancorp Inc'
p3618
asS'9/2/2004'
p3619
(lp3620
S'First Cmnty Capital Corp,TX'
p3621
ag1357
asS'12/20/1999'
p3622
(lp3623
S'Permanent Bancorp Inc,Indiana'
p3624
ag178
asS'12/20/1996'
p3625
(lp3626
S'Southwest Bancshares,Arkansas'
p3627
ag619
asS'6/28/2004'
p3628
(lp3629
S'Cuyamaca Bank NA,CA'
p3630
aS'Community Bancorp Inc'
p3631
asS'12/20/1994'
p3632
(lp3633
S'Morris State Bancorporation,MN'
p3634
aS'Bremer Financial(Bremer Otto)'
p3635
asS'12/20/1995'
p3636
(lp3637
S'Manchester State Bank,CT'
p3638
ag723
asS'6/28/2001'
p3639
(lp3640
S'Borel Bank & Trust Co,CA'
p3641
ag3433
asS'6/28/2000'
p3642
(lp3643
S'Coml Bank of San Francisco'
p3644
ag100
asS'12/20/1991'
p3645
(lp3646
S'Summcorp,Fort Wayne,Indiana'
p3647
ag477
asS'3/5/1996'
p3648
(lp3649
S'Farmers Deposit Bancorp,KY'
p3650
ag28
asS'3/5/1993'
p3651
(lp3652
S'United Southern Bank,TN'
p3653
ag32
asS'3/5/1992'
p3654
(lp3655
S'Sunwest Finl Svcs,Albuquerque'
p3656
ag878
asS'6/26/1989'
p3657
(lp3658
S'First Woburn Bancorp,Woburn,MA'
p3659
ag3116
asS'1/20/1989'
p3660
(lp3661
S'First Security Bank of Tacoma'
p3662
aS'Moore Financial Group Inc'
p3663
asS'1/20/1986'
p3664
(lp3665
S'American Natl Hldg,Kalamazoo'
p3666
ag918
asS'6/26/1986'
p3667
(lp3668
S'Third Natl Bk & Tr,Scranton,PA'
p3669
aS'Independence Bancorp,Perkasie'
p3670
asS'4/23/2015'
p3671
(lp3672
S'Focus Business Bank,San Jose'
p3673
aS'Heritage Commerce Corp'
p3674
asS'3/5/1998'
p3675
(lp3676
S'Public Bank Corp,St Cloud,FL'
p3677
ag96
asS'9/13/2000'
p3678
(lp3679
S'Citizens National Bk of Malone'
p3680
ag449
asS'9/13/2005'
p3681
(lp3682
S'Cedars Bank'
p3683
ag797
asS'5/21/2008'
p3684
(lp3685
S'Willow Financial Bancorp Inc'
p3686
ag495
asS'10/2/1989'
p3687
(lp3688
S'First Community Bancorp Inc PA'
p3689
ag217
asS'10/7/1999'
p3690
(lp3691
S'BC Bankshares Inc,Georgia'
p3692
ag16
asS'5/27/1997'
p3693
(lp3694
S'Pacific National Corp,MA'
p3695
aS'BankBoston Corp,Boston,MA'
p3696
asS'6/7/1988'
p3697
(lp3698
S'Webster County Natl Bk,WV'
p3699
ag209
asS'8/12/2004'
p3700
(lp3701
S'PHSB Financial Corp,PA'
p3702
aS'ESB Financial Corp'
p3703
asS'3/1/1991'
p3704
(lp3705
S'First Interstate Bank of OK'
p3706
ag878
asS'3/1/1996'
p3707
(lp3708
S'American Bancshares of Houma'
p3709
ag237
asS'11/27/2001'
p3710
(lp3711
S'SBC Financial Corp'
p3712
aS'Oneida Financial Corp'
p3713
asS'1/27/2000'
p3714
(lp3715
S'GBT Bancorp Inc,Gloucester,MA'
p3716
aS'Andover Bancorp Inc,Andover,MA'
p3717
asS'11/27/2007'
p3718
(lp3719
S'Traders Bankshares Inc,WV'
p3720
ag28
asS'8/19/2010'
p3721
(lp3722
S'NewAlliance Bancshares Inc,CT'
p3723
ag225
asS'11/19/1987'
p3724
(lp3725
S'Central Wisconsin Bankshares'
p3726
ag1206
asS'4/9/1986'
p3727
(lp3728
S'Georgia ST Bancshares,Mableton'
p3729
ag56
asS'12/19/2008'
p3730
(lp3731
S'Provident Bankshares Corp,MD'
p3732
ag2660
asS'12/19/2001'
p3733
(lp3734
S'Independence Bank Kernersville'
p3735
aS'Bank of North Carolina,NC'
p3736
asS'12/19/2003'
p3737
(lp3738
S'Guaranty Financial Corp,VA'
p3739
aS'Union Bankshares Corp,VA'
p3740
asS'2/10/2014'
p3741
(lp3742
S'Mountain West Financial Corp'
p3743
aS'First Interstate BancSystem In'
p3744
asS'8/14/2006'
p3745
(lp3746
S'Anderson Bank Co'
p3747
ag277
asS'9/26/1994'
p3748
(lp3749
g1184
ag2351
asS'8/14/2002'
p3750
(lp3751
S'Herkimer Trust Corporation Inc'
p3752
aS'Partners Trust Financial Group'
p3753
asS'2/10/2012'
p3754
(lp3755
S'Heartland Bancshares Inc,IN'
p3756
aS'Horizon Bancorp,IN'
p3757
asS'3/31/2011'
p3758
(lp3759
S'Community Capital Corp,SC'
p3760
aS'Park Sterling Corp'
p3761
asS'3/31/2015'
p3762
(lp3763
S'Easton Bancorp Inc'
p3764
aS'Delmarva Bancshares Inc'
p3765
asS'1/5/2007'
p3766
(lp3767
S'Penn Laurel Financial Corp'
p3768
ag3108
asS'6/18/2003'
p3769
(lp3770
S'Independent Bankshares Corp'
p3771
aS'Greene County Bancshares Inc'
p3772
asS'6/18/2001'
p3773
(lp3774
S'Manufacturers Bank of Florida'
p3775
ag80
asS'6/18/2007'
p3776
(lp3777
S'Ohio County Bancshares Inc'
p3778
aS'Porter Bancorp Inc'
p3779
asS'6/18/2008'
p3780
(lp3781
S'HNB Bancorp Inc,Halifax,PA'
p3782
aS'First Perry Bancorp Inc'
p3783
asS'10/7/2003'
p3784
(lp3785
S'Alliance Bancorp Inc,AR'
p3786
ag3177
asS'10/7/2002'
p3787
(lp3788
S'North State National Bank,CA'
p3789
ag2215
asS'2/17/1992'
p3790
(lp3791
S'Security Financial Group Inc'
p3792
aS'Metropolitan Financial Corp'
p3793
asS'2/17/1993'
p3794
(lp3795
S'Commercial Landmark Corp'
p3796
ag412
asS'2/17/1994'
p3797
(lp3798
S'Pioneer Financial Corp'
p3799
ag1032
asS'2/17/1995'
p3800
(lp3801
S'FBC Holding Co Ltd'
p3802
ag432
asS'2/17/1998'
p3803
(lp3804
S'Sandwich Bancorp,Sandwich,MA'
p3805
aS'Cape Cod Bank & Trust,MA'
p3806
asS'2/17/1999'
p3807
(lp3808
S'Prime Bancorp,Philadelphia,PA'
p3809
ag190
asS'8/23/1993'
p3810
(lp3811
S'Houghton Financial Inc'
p3812
aS'Michigan Financial Corp'
p3813
asS'8/23/1995'
p3814
(lp3815
S'Metro Financial Corp'
p3816
ag237
asS'9/28/2005'
p3817
(lp3818
S'Peoples Ohio Financial Corp,OH'
p3819
ag822
asS'8/23/1996'
p3820
(lp3821
S'Regional Bancshares,Alton,IL'
p3822
ag992
asS'9/15/1987'
p3823
(lp3824
g909
ag3173
asS'4/30/2009'
p3825
(lp3826
S'Nuestro Banco,Raleigh,NC'
p3827
ag2970
asS'9/25/2012'
p3828
(lp3829
S'ECB Bancorp Inc,Engelhard,NC'
p3830
aS'Crescent Financial Bancshares'
p3831
asS'10/20/2005'
p3832
(lp3833
S'Calnet Business Bank,CA'
p3834
aS'Coml Capital Bancorp Inc,CA'
p3835
asS'2/25/1999'
p3836
(lp3837
S'Matewan Bancshares Inc'
p3838
ag491
asS'2/25/1998'
p3839
(lp3840
S'Rappahannock Bancshares,VA'
p3841
ag3740
asS'7/14/2005'
p3842
(lp3843
S'Thompson Falls Hldg Co,MT'
p3844
ag249
asS'7/19/2004'
p3845
(lp3846
S'First City Bank,CT'
p3847
aS'Webster Financial Corp'
p3848
asS'1/8/2003'
p3849
(lp3850
S'First Central Bancshares,TN'
p3851
ag1835
asS'2/25/1992'
p3852
(lp3853
S'Crater Bank,Central Point,OR'
p3854
ag1523
asS'2/25/1994'
p3855
(lp3856
S'Libsab Bancorp Inc'
p3857
aS'Peoples First Corp'
p3858
asS'2/25/1997'
p3859
(lp3860
S'First Bank of West Hartford,CT'
p3861
ag723
asS'8/16/1995'
p3862
(lp3863
S'Bergen Commercial Bank,NJ'
p3864
aS'Great Falls Bancorp'
p3865
asS'8/16/1994'
p3866
(lp3867
S'First State Bk& Trust Co,LA'
p3868
ag336
asS'7/12/1989'
p3869
(lp3870
S'Equitable Bancorp,Baltimore,MD'
p3871
aS'MNC Financial Inc'
p3872
asS'12/29/2004'
p3873
(lp3874
S'Liberty Bank &Trust,Toccoa,GA'
p3875
aS'Habersham Bancorp,Cornelia,GA'
p3876
asS'3/4/1991'
p3877
(lp3878
S'Gleneagles Natl,Bk Las Colinas'
p3879
ag147
asS'1/23/2014'
p3880
(lp3881
S'Alpena Banking Corp'
p3882
aS'First Federal of Northern,MI'
p3883
asS'8/16/1999'
p3884
(lp3885
S'Lake Ariel Bancorp Inc,PA'
p3886
ag1054
asS'8/30/1999'
p3887
(lp3888
S'Reliance Bancorp Inc,New York'
p3889
ag487
asS'3/26/2015'
p3890
(lp3891
S'Absarokee Bancorp'
p3892
ag3744
asS'8/30/1994'
p3893
(lp3894
S'United Counties Bancorp'
p3895
ag1381
asS'6/8/2005'
p3896
(lp3897
S'First United Bank,San Diego,CA'
p3898
aS'MetroCorp Bancshares Inc'
p3899
asS'8/30/1996'
p3900
(lp3901
S"Boatmen's Bancshares,St Louis"
p3902
ag1122
asS'8/30/1993'
p3903
(lp3904
S'First Citizens United Inc'
p3905
ag178
asS'3/26/2012'
p3906
(lp3907
S'Oceanic Bank Holding Inc'
p3908
aS'FNB Bancorp'
p3909
asS'11/10/1998'
p3910
(lp3911
S'Security Bank Corp'
p3912
ag683
asS'3/5/2014'
p3913
(lp3914
S'Provident Comnty Bancshares'
p3915
ag3761
asS'1/28/1994'
p3916
(lp3917
S'FGC Holding Co'
p3918
aS'Trans Finl,Bowling Green,KY'
p3919
asS'11/10/1992'
p3920
(lp3921
S'Dorn Banking Co'
p3922
aS'LSB Bancshares Inc of SC'
p3923
asS'11/29/2000'
p3924
(lp3925
S'First Liberty Bank,PA'
p3926
ag449
asS'7/22/2005'
p3927
(lp3928
S'Sun Bancshares Inc,SC'
p3929
ag2378
asS'7/22/2002'
p3930
(lp3931
S'Big Foot Financial Corp'
p3932
aS'Midwest Banc Holdings Inc'
p3933
asS'9/23/1992'
p3934
(lp3935
g1676
aS'GAB Bancorp'
p3936
asS'9/23/1996'
p3937
(lp3938
S'Broadway Capital,Chelsea,MA'
p3939
aS'BostonFed Bancorp Inc,MA'
p3940
asS'9/23/1997'
p3941
(lp3942
S'First United Bancorp,SC'
p3943
ag237
asS'6/3/2014'
p3944
(lp3945
S'Houston Community Bank'
p3946
ag1462
asS'1/14/1988'
p3947
(lp3948
S'IB&T Corp,Boise,Idaho'
p3949
ag2063
asS'6/4/2012'
p3950
(lp3951
S'First Trust Bank,Charlotte,NC'
p3952
ag1506
asS'1/14/1987'
p3953
(lp3954
S'Liberty State Bk,Mt Carmel,PA'
p3955
ag971
asS'1/14/1986'
p3956
(lp3957
S'National Bank of Commerce,DC'
p3958
ag20
asS'7/23/1996'
p3959
(lp3960
S'Tuscaloosa Bancshares,LA'
p3961
ag2197
asS'7/23/1997'
p3962
(lp3963
S'South Florida Banking Corp,FL'
p3964
ag80
asS'7/7/1995'
p3965
(lp3966
S'Security Bank of Conway,AR'
p3967
ag992
asS'7/7/1994'
p3968
(lp3969
S'Washington Bancorp Inc'
p3970
ag679
asS'7/23/1991'
p3971
(lp3972
S'Utah Bank&Trust,Salt Lake City'
p3973
ag1743
asS'3/11/1986'
p3974
(lp3975
S'Pacwest Bancorp,Portland,OR'
p3976
ag2063
asS'2/18/1991'
p3977
(lp3978
S'Independence Bancorp-Credit'
p3979
ag205
asS'3/13/2003'
p3980
(lp3981
S'F&M Bancorp,Frederick,MD'
p3982
ag1148
asS'10/8/1996'
p3983
(lp3984
S'South Hillsborough Cmnty Bk,FL'
p3985
aS'Provident Bancorp,OH'
p3986
asS'2/18/1992'
p3987
(lp3988
S'Parke State Bank,Rockville,IN'
p3989
ag205
asS'2/18/1994'
p3990
(lp3991
S'First Community Bank of Henry'
p3992
aS'Bank Holding Co,Griffin,GA'
p3993
asS'2/18/1997'
p3994
(lp3995
S'First Commerce Banks of FL,FL'
p3996
ag80
asS'2/18/1999'
p3997
(lp3998
S'State Bank of Remington,VA'
p3999
ag1852
asS'2/18/1998'
p4000
(lp4001
S'Humble National Bank,Houston'
p4002
ag1582
asS'8/22/2001'
p4003
(lp4004
S'Pacific Western National Bank'
p4005
ag797
asS'8/22/2000'
p4006
(lp4007
S'Shoreline Financial Corp,MI'
p4008
ag1291
asS'7/17/2014'
p4009
(lp4010
S'Santa Clara Valley Bank NA,CA'
p4011
aS'Sierra Bancorp,Porterville,CA'
p4012
asS'3/19/1999'
p4013
(lp4014
S'Merit Holding Corp,Tucker,GA'
p4015
ag1343
asS'2/27/2008'
p4016
(lp4017
S'1st Independence Finl Grp,KY'
p4018
ag822
asS'11/2/2000'
p4019
(lp4020
S'Bath National Corp'
p4021
aS'Financial Institutions Inc'
p4022
asS'11/2/2007'
p4023
(lp4024
S'GB&T Bancshares Inc,Georgia'
p4025
ag72
asS'11/2/2006'
p4026
(lp4027
S'Unison Bancorp Inc,Lenexa,'
p4028
aS'Blue Valley Ban Corp'
p4029
asS'2/27/2002'
p4030
(lp4031
S'WHG Bancshares Corp'
p4032
aS'BCSB Bancorp Inc'
p4033
asS'2/27/2004'
p4034
(lp4035
S'BankTrust of Florida'
p4036
aS'Vision Bancshares Inc'
p4037
asS'9/29/2008'
p4038
(lp4039
S'Wachovia Corp,NC-Bkg Op'
p4040
ag394
asS'11/5/2007'
p4041
(lp4042
S'HeritageBanc Inc,Chicago,IL'
p4043
aS'Old Second Bancorp Inc'
p4044
asS'9/29/2004'
p4045
(lp4046
S'Amer Horizons Bancorp Inc,LA'
p4047
ag1321
asS'8/1/2001'
p4048
(lp4049
S'Salem Community Bankshares Inc'
p4050
ag1784
asS'8/1/2005'
p4051
(lp4052
S'Long Island Financial Corp,NY'
p4053
aS'New York Community Bancorp Inc'
p4054
asS'1/6/2003'
p4055
(lp4056
S'Pacific Business Bank,CA'
p4057
ag1438
asS'1/6/2000'
p4058
(lp4059
S'Commercial Guaranty Bancshares'
p4060
aS'Enterbank Holdings Inc,MO'
p4061
asS'1/6/2004'
p4062
(lp4063
S'First Heritage Bk,PA'
p4064
ag449
asS'1/16/2014'
p4065
(lp4066
S'Community Bank of San Joaquin'
p4067
ag1593
asS'2/5/2015'
p4068
(lp4069
S'Community Southern Holdings'
p4070
aS'Sunshine Bancorp Inc'
p4071
asS'1/10/1996'
p4072
(lp4073
S'Jacob Schmidt Co'
p4074
ag221
asS'5/20/2004'
p4075
(lp4076
S'Klein Bancshares Inc,TX'
p4077
ag1801
asS'6/16/1997'
p4078
(lp4079
S'First of America Bank-Florida'
p4080
ag1003
asS'6/16/1995'
p4081
(lp4082
S'Wes-Tenn Bancorp Inc'
p4083
aS'BancorpSouth Inc'
p4084
asS'7/29/1997'
p4085
(lp4086
S'Surety Bank,Vallejo,California'
p4087
ag100
asS'6/16/1993'
p4088
(lp4089
S'Valley Bancorp'
p4090
aS'Dauphin Deposit Corp,PA'
p4091
asS'6/16/1992'
p4092
(lp4093
S'Bank of Commerce,Woodbury,TN'
p4094
ag293
asS'7/29/1993'
p4095
(lp4096
S'Parkway Bancorp,Illinois'
p4097
ag2522
asS'11/12/1996'
p4098
(lp4099
S'ValliCorp Holdings Inc,CA'
p4100
ag1897
asS'6/29/1989'
p4101
(lp4102
S'First Illini Bancorp Inc'
p4103
ag900
asS'5/21/2001'
p4104
(lp4105
S'Success Bancshares,Illinois'
p4106
ag3187
asS'11/12/1991'
p4107
(lp4108
S'Ameribanc Inc'
p4109
ag992
asS'11/12/1992'
p4110
(lp4111
S'Metro Bancorp,Waterlood,IA'
p4112
ag221
asS'11/12/1993'
p4113
(lp4114
g2300
ag1768
asS'3/9/2015'
p4115
(lp4116
S'IBT Bancorp Inc'
p4117
aS'Veritex Holdings Inc'
p4118
asS'6/28/2007'
p4119
(lp4120
S'NCW Community Bank,Wenatchee'
p4121
ag2656
asS'11/1/2011'
p4122
(lp4123
S'BankAtlantic,FL'
p4124
ag491
asS'11/1/2010'
p4125
(lp4126
S'Wilmington Trust Corp,DE'
p4127
ag2660
asS'6/19/1998'
p4128
(lp4129
S'Republic Bank of Torrance,CA'
p4130
ag2024
asS'6/28/2006'
p4131
(lp4132
g4090
ag3502
asS'12/8/1997'
p4133
(lp4134
S'Deposit Guaranty,Jackson,MS'
p4135
ag690
asS'12/8/1994'
p4136
(lp4137
S'Chase Manhattan Bank-NY Br(15)'
p4138
ag449
asS'6/19/1996'
p4139
(lp4140
S'Community Bancshares,Louisiana'
p4141
ag679
asS'6/19/1997'
p4142
(lp4143
S'Culver National Bank,Culver'
p4144
aS'Bank of Los Angeles,CA'
p4145
asS'6/19/1995'
p4146
(lp4147
S'First Fidelity Bancorp,NJ'
p4148
ag56
asS'11/14/1985'
p4149
(lp4150
S'First Bankers Corp of Florida'
p4151
ag56
asS'4/1/2014'
p4152
(lp4153
S'Quinnipiac Bank And Trust Co'
p4154
aS'Bankwell Financial Group'
p4155
asS'4/1/2015'
p4156
(lp4157
S'FBC Bancshares Inc'
p4158
ag12
asS'7/15/1988'
p4159
(lp4160
S'First Interstate BK of In'
p4161
ag900
asS'6/20/2011'
p4162
(lp4163
S'Tower Bancorp Inc'
p4164
ag4
asS'8/21/2007'
p4165
(lp4166
S'Greenville Cmnty Finl Corp'
p4167
aS'IBT Bancorp Inc,Mt Pleasant,MI'
p4168
asS'5/22/2001'
p4169
(lp4170
S'First Charter Bank NA'
p4171
ag797
asS'5/22/2002'
p4172
(lp4173
S'Monroe Finl,Greenville,WV'
p4174
ag465
asS'8/7/1989'
p4175
(lp4176
S'Woodburn Bancorp,Woodburn,OR'
p4177
ag2391
asS'8/7/1987'
p4178
(lp4179
S'Midwest Natl Bank Indianapolis'
p4180
ag2313
asS'8/7/1985'
p4181
(lp4182
S'First Interstate Corp of AK'
p4183
aS'Key Banks Inc'
p4184
asS'8/31/1992'
p4185
(lp4186
S'Sunrise Bancorp Inc,WV'
p4187
aS'Mountaineer Bankshares of WV'
p4188
asS'8/31/1993'
p4189
(lp4190
S'Guardian Bancshares Inc'
p4191
ag1582
asS'10/3/1985'
p4192
(lp4193
S'Corpus Christi Bancshares,TX'
p4194
ag2848
asS'3/4/1985'
p4195
(lp4196
S'Northwestern Fincl Corp,NC'
p4197
ag56
asS'8/31/1995'
p4198
(lp4199
S'Johnston County Bancshares Inc'
p4200
ag3104
asS'8/31/1999'
p4201
(lp4202
S'Firstbancorp-SC Branches(3)'
p4203
ag3614
asS'9/7/2001'
p4204
(lp4205
S'Nashoba Bancshares Inc'
p4206
ag1527
asS'11/6/2006'
p4207
(lp4208
S'United Financial Corp,MT'
p4209
ag1757
asS'3/19/2012'
p4210
(lp4211
S'Florida Gulf Bancorp Inc'
p4212
ag1321
asS'11/4/1985'
p4213
(lp4214
S'BancTEXAS Tyler,Tyler,Texas'
p4215
aS'Texas American Bancshares Inc'
p4216
asS'11/4/1987'
p4217
(lp4218
S'Union National Corp,PA'
p4219
aS'Pennbancorp,Titusville,PA'
p4220
asS'11/4/1986'
p4221
(lp4222
S'Orbanco Finl Svcs Corp'
p4223
ag309
asS'11/6/2009'
p4224
(lp4225
S'United Commercial Bank,CA'
p4226
ag1438
asS'4/17/2000'
p4227
(lp4228
S'First United Bancshares Inc,AR'
p4229
ag4084
asS'11/18/1993'
p4230
(lp4231
S'Rio Salado Bancorp'
p4232
ag398
asS'6/28/2013'
p4233
(lp4234
S'Penseco Financial Services'
p4235
aS'Peoples Financial Services'
p4236
asS'11/13/2006'
p4237
(lp4238
S'Bank of Venice,Venice,Florida'
p4239
aS'TIB Financial Corp'
p4240
asS'3/19/2008'
p4241
(lp4242
S'Greater Community Bancorp'
p4243
ag375
asS'10/14/1985'
p4244
(lp4245
g4183
ag2063
asS'6/26/1998'
p4246
(lp4247
S'Gold Country National Bank'
p4248
ag123
asS'3/19/2014'
p4249
(lp4250
S'Riverside Bank'
p4251
aS'Salisbury Bancorp Inc'
p4252
asS'4/23/2007'
p4253
(lp4254
S'ABN AMRO North America Holding'
p4255
aS'Bank of America Corp'
p4256
asS'10/17/2000'
p4257
(lp4258
S'Timberline Bancshares Inc'
p4259
aS'PremierWest Bancorp,Medford,OR'
p4260
asS'5/8/2012'
p4261
(lp4262
S'First CA Finl Grp Inc'
p4263
ag1110
asS'5/8/2014'
p4264
(lp4265
S'1st United Bancorp,Boca Raton'
p4266
ag375
asS'5/8/2015'
p4267
(lp4268
S'NEW Bancshares Inc,Wisconsin'
p4269
aS'Baylake Corp'
p4270
asS'10/31/2003'
p4271
(lp4272
S'Stebbins Bancshares Inc,OH'
p4273
aS'Wayne Savings Bancshares Inc'
p4274
asS'10/31/2005'
p4275
(lp4276
S'Prosperity Bank & Trust Co,VA'
p4277
ag3740
asS'10/31/2006'
p4278
(lp4279
g2027
ag4084
asS'12/9/2004'
p4280
(lp4281
S'Northeast Pennsylvania Finl'
p4282
aS'KNBT Bancorp Inc,Bethlehem,PA'
p4283
asS'12/9/2003'
p4284
(lp4285
S'CCBT Financial Cos,Yarmouth,MA'
p4286
ag896
asS'12/7/1990'
p4287
(lp4288
S'Montgomery Bancorp, Mount'
p4289
ag844
asS'8/9/2006'
p4290
(lp4291
S'Pulaski Invesment Corp'
p4292
ag1321
asS'8/10/2012'
p4293
(lp4294
S'CMS Bancorp Inc'
p4295
ag1106
asS'11/19/1997'
p4296
(lp4297
S'BCB Financial Services Corp,PA'
p4298
aS'Heritage Bancorp,Pottsville,PA'
p4299
asS'3/14/1986'
p4300
(lp4301
S'Citizen Natl Bk, Stevens Point'
p4302
aS'Marine Corp, Milwaukee,WI'
p4303
asS'11/19/1993'
p4304
(lp4305
S'Independence Bancorp,Perkasie'
p4306
ag586
asS'7/16/1985'
p4307
(lp4308
S'Union Trust Bancorp'
p4309
ag888
asS'7/16/1986'
p4310
(lp4311
S'Union Banc Corp, Kokomo, IN'
p4312
aS'First Indiana Corp,Indiana'
p4313
asS'9/12/2007'
p4314
(lp4315
S'Peoples Comnty Bancorp Inc,OH'
p4316
aS'Integra Bank Corp,Evansville'
p4317
asS'9/12/2006'
p4318
(lp4319
S'Vernon Bank Corp'
p4320
ag3713
asS'10/21/2002'
p4321
(lp4322
S'1st Constitution Bancorp'
p4323
aS'Greater Community Bancorp'
p4324
asS'3/31/2003'
p4325
(lp4326
S'CSB Financial Corp,Teaneck,NJ'
p4327
ag715
asS'3/31/2006'
p4328
(lp4329
S'Bay Net Financial Inc'
p4330
ag197
asS'3/31/2004'
p4331
(lp4332
S'United Nebraska Finl Co,NE'
p4333
aS'TierOne Corp,Lincoln,Nebraska'
p4334
asS'10/7/2015'
p4335
(lp4336
S'Cornerstone Bancorp Inc,FL'
p4337
aS'Republic Bancorp Inc'
p4338
asS'3/12/2006'
p4339
(lp4340
S'North Fork Bancorp,Melville,NY'
p4341
ag127
asS'7/26/2011'
p4342
(lp4343
S'Elgin State Bancorp Inc,IL'
p4344
ag859
asS'3/26/2013'
p4345
(lp4346
S'FC Banc Corp,Bucyrus,Ohio'
p4347
aS'CNB Financial Corp'
p4348
asS'8/4/2015'
p4349
(lp4350
S'Pascack Bancorp Inc'
p4351
ag715
asS'6/1/2006'
p4352
(lp4353
S'Vail Banks Inc,Vail,Colorado'
p4354
ag1757
asS'8/23/1989'
p4355
(lp4356
S'Baltimore Trust Co'
p4357
ag1148
asS'3/10/2003'
p4358
(lp4359
S'Maxim Financial Holdings Inc'
p4360
ag1801
asS'12/28/1994'
p4361
(lp4362
S'Sugarland Bancshares Inc'
p4363
aS'MidSouth Bancorp Inc,LA'
p4364
asS'12/28/1992'
p4365
(lp4366
g196
ag257
asS'12/28/1993'
p4367
(lp4368
S'Farmers Bancshares Inc'
p4369
ag2024
asS'11/24/2000'
p4370
(lp4371
g563
ag151
asS'7/3/1985'
p4372
(lp4373
S'Bankers Trust South Carolina'
p4374
ag1084
asS'7/3/1989'
p4375
(lp4376
S'Monroe City Bank,Missouri'
p4377
ag1818
asS'2/28/2005'
p4378
(lp4379
S'First Bancshares Inc,CA'
p4380
aS'Pacific Capital Bancorp,CA'
p4381
asS'12/28/1998'
p4382
(lp4383
S'Seaport Citizens Bank,Idaho'
p4384
aS'First Washington Bancorp Inc'
p4385
asS'12/28/1999'
p4386
(lp4387
S'Piedmont Bancorp Inc'
p4388
aS'National Commerce Bancorp'
p4389
asS'7/14/2014'
p4390
(lp4391
S'Private Bancorp Inc'
p4392
aS'Alerus Financial Corp'
p4393
asS'9/21/1992'
p4394
(lp4395
S'First Gibraltar Bk-Most Assets'
p4396
ag2391
asS'9/21/1993'
p4397
(lp4398
S'BankWorcester,Worcester,MA'
p4399
ag1280
asS'2/25/1985'
p4400
(lp4401
S'Citizens Bk & Tr,Glastonbury'
p4402
aS'CBT Corp,Hartford,CT'
p4403
asS'8/16/1985'
p4404
(lp4405
S'Bank of Middlesex, Urbana,VA'
p4406
ag32
asS'7/12/1996'
p4407
(lp4408
S'Crown Park Bancshares,Texas'
p4409
aS'Independent Bankshares Inc'
p4410
asS'7/12/1995'
p4411
(lp4412
S'First Chicago Corp,Illinois'
p4413
ag477
asS'3/17/2004'
p4414
(lp4415
S'Florida Banks Inc,FL'
p4416
ag1791
asS'7/28/2014'
p4417
(lp4418
S'Founders Financial Corp'
p4419
ag1092
asS'7/28/2011'
p4420
(lp4421
S'Peoples State Bank of Commerce'
p4422
aS'Tennessee Commerce Bancorp Inc'
p4423
asS'1/2/1998'
p4424
(lp4425
S'Pee Dee State Bank,SC'
p4426
aS'Centura Bank Inc,NC'
p4427
asS'8/30/1985'
p4428
(lp4429
S'FirstGulf Bancorp,Mobile,'
p4430
ag2522
asS'2/19/2015'
p4431
(lp4432
S'Peoples Bancorp,Auburn,Indiana'
p4433
ag3757
asS'2/12/1996'
p4434
(lp4435
S'California Bancshares Inc'
p4436
ag2367
asS'2/12/1990'
p4437
(lp4438
S'First Essex Bancorp Inc,MA'
p4439
ag3717
asS'4/21/1993'
p4440
(lp4441
S'Commerce Banc Corp'
p4442
ag750
asS'5/17/1995'
p4443
(lp4444
S'West-Ark Bancshares Inc'
p4445
ag619
asS'5/17/1994'
p4446
(lp4447
g2237
ag52
asS'6/3/2004'
p4448
(lp4449
S'Trust Bancorp,CA'
p4450
ag1438
asS'4/21/1995'
p4451
(lp4452
S'Valley Banc Services Corp'
p4453
aS'Merchants Bancorp,Aurora,IL'
p4454
asS'4/21/1994'
p4455
(lp4456
S'Brundidge Banking Co'
p4457
ag80
asS'6/3/2009'
p4458
(lp4459
S'Carolina Commerce Bk,Gastonia'
p4460
aS'Carolina Trust Bank'
p4461
asS'9/1/2010'
p4462
(lp4463
S'Maryland Bankcorp Inc'
p4464
ag2020
asS'2/13/2004'
p4465
(lp4466
S'Citizens Bank(Kentucky)Inc,'
p4467
ag1970
asS'2/13/2003'
p4468
(lp4469
S'Huntington Bancshares-Offices'
p4470
ag3390
asS'2/13/2001'
p4471
(lp4472
S'Commercial Bank of New York'
p4473
ag487
asS'7/1/2005'
p4474
(lp4475
S'First National Banc Inc,GA'
p4476
ag2552
asS'2/2/2005'
p4477
(lp4478
S'South Coast Bancorp Inc,CA'
p4479
aS'First California Bank,CA'
p4480
asS'1/14/1997'
p4481
(lp4482
S'County Bank of Chesterfield,VA'
p4483
aS'Community Bankshares Inc,VA'
p4484
asS'1/14/1994'
p4485
(lp4486
S'Bank of Iredell,Statesville,'
p4487
ag1170
asS'2/23/1999'
p4488
(lp4489
S'Pierbank,South Kingstown,RI'
p4490
aS'Washington Trust Bancorp,RI'
p4491
asS'2/23/1998'
p4492
(lp4493
S'Magna Group Inc,St. Louis,MO'
p4494
ag293
asS'2/18/1987'
p4495
(lp4496
S'Community Banks, Middleton, WI'
p4497
aS'Valley Bancorp,Appleton,WI'
p4498
asS'8/8/1985'
p4499
(lp4500
S'Second National Bk,Saginaw,MI'
p4501
ag1287
asS'2/23/1993'
p4502
(lp4503
S'Massachusetts Co Inc'
p4504
ag2104
asS'8/22/2014'
p4505
(lp4506
S'Cmnty Bk of Broward,Weston,FL'
p4507
ag163
asS'2/23/1995'
p4508
(lp4509
S'Bank of Harrisburg,IL'
p4510
ag178
asS'2/23/1994'
p4511
(lp4512
S'Heritage Financial Corp'
p4513
ag289
asS'7/17/2002'
p4514
(lp4515
S'Citizens Financial Corp,OK'
p4516
aS'Local Financial Corp,OK'
p4517
asS'7/17/2007'
p4518
(lp4519
S'BankFirst NA-Stored Value'
p4520
ag2774
asS'10/27/1988'
p4521
(lp4522
S'St Francis St Bk,St Francis,WI'
p4523
aS'F&M Financial Services Corp'
p4524
asS'10/27/1989'
p4525
(lp4526
S'Danville Bancorp Inc'
p4527
ag217
asS'11/2/2011'
p4528
(lp4529
S'Anglo Irish Bank Corp-US Loan'
p4530
ag1357
asS'5/11/2015'
p4531
(lp4532
S'First Community Bank, Columbus'
p4533
ag383
asS'4/17/1986'
p4534
(lp4535
S'United Bank,Tacoma,Washington'
p4536
ag1229
asS'8/17/2005'
p4537
(lp4538
S'Town Bank,Westfield,NJ'
p4539
aS'Two River Comnty Bk,Middletown'
p4540
asS'10/23/1986'
p4541
(lp4542
S'USAmeribancs, Highland Park,'
p4543
ag477
asS'6/16/1988'
p4544
(lp4545
S'First Wyoming Bancorp,Wyoming'
p4546
ag2063
asS'2/5/2004'
p4547
(lp4548
S'Midwest Guaranty Bancorp,MI'
p4549
ag24
asS'4/9/1984'
p4550
(lp4551
g887
ag32
asS'6/17/2002'
p4552
(lp4553
S'Mississippi Valley Bancshares'
p4554
ag947
asS'12/17/1998'
p4555
(lp4556
S'Wood Bancorp,Bowling Green,OH'
p4557
ag281
asS'12/31/1997'
p4558
(lp4559
S'Hub Financial Corp,Helena,MT'
p4560
ag249
asS'11/12/1986'
p4561
(lp4562
S'RHNB Corp,Rock Hill, SC'
p4563
ag1084
asS'12/17/1991'
p4564
(lp4565
S'Peoples Bank,Front Royal,VA'
p4566
ag2595
asS'12/17/1993'
p4567
(lp4568
S'VSB Bancorp Inc'
p4569
ag2132
asS'8/26/2004'
p4570
(lp4571
S'Liberty National Bancshares,GA'
p4572
ag1835
asS'4/20/1998'
p4573
(lp4574
S'Virginia Heartland Bank'
p4575
aS'Virginia Commonwealth Finl'
p4576
asS'4/20/1999'
p4577
(lp4578
S'Farmers & Merchants Bank,GA'
p4579
ag665
asS'5/4/1994'
p4580
(lp4581
S'Goreville Bancorp'
p4582
ag68
asS'5/4/1995'
p4583
(lp4584
S'Village Bank,Chapel Hill,NC'
p4585
ag719
asS'5/4/1993'
p4586
(lp4587
S'Spring National Bank'
p4588
ag147
asS'12/15/2014'
p4589
(lp4590
S'LNB Bancorp Inc'
p4591
ag1988
asS'4/20/1992'
p4592
(lp4593
S'First Bank/Las Colinas,Texas'
p4594
aS'BancTEXAS Group Inc'
p4595
asS'4/20/1994'
p4596
(lp4597
S'Oklahoma Savings Inc'
p4598
ag412
asS'4/20/1995'
p4599
(lp4600
S'Peoples Bank & Tr(Midway Corp)'
p4601
ag863
asS'5/4/1998'
p4602
(lp4603
S'Merchants Capital Corp'
p4604
ag4084
asS'7/2/1996'
p4605
(lp4606
S'Hastings Financial Corp'
p4607
ag305
asS'7/2/1993'
p4608
(lp4609
S'Tristate Bancorp,Cincinnati,OH'
p4610
ag844
asS'11/1/2002'
p4611
(lp4612
S'CoVest Bancshares Inc,IL'
p4613
ag3933
asS'11/1/2000'
p4614
(lp4615
S'Imperial Bancorp,Inglewood,CA'
p4616
ag139
asS'1/8/2004'
p4617
(lp4618
S'Second Bancorp Inc,Warren,OH'
p4619
ag281
asS'11/1/2006'
p4620
(lp4621
S'Business Bank Corp'
p4622
ag92
asS'11/1/2005'
p4623
(lp4624
S'Mercantile Financial Corp,OH'
p4625
aS'Peoples Comnty Bancorp Inc,OH'
p4626
asS'12/8/1989'
p4627
(lp4628
S'Bank First NA,McLean,Virginia'
p4629
ag209
asS'11/1/2008'
p4630
(lp4631
S'Freedom Bank-Assets'
p4632
ag844
asS'3/24/2014'
p4633
(lp4634
S'Delta Trust & Banking Corp'
p4635
ag3177
asS'4/1/2002'
p4636
(lp4637
S'Central California Bank'
p4638
ag943
asS'12/27/2005'
p4639
(lp4640
S'F&M Holding Co'
p4641
ag269
asS'12/27/2000'
p4642
(lp4643
S'Drovers Bancshares Corp'
p4644
ag217
asS'7/6/1998'
p4645
(lp4646
S'Commercial National Bank,AL'
p4647
aS'South Alabama Bancorp,AL'
p4648
asS'7/6/1992'
p4649
(lp4650
S'Oakland Commerce Bank,MI'
p4651
ag1350
asS'6/24/1993'
p4652
(lp4653
S'Cleveland Bank & Trust Co'
p4654
ag32
asS'6/24/1996'
p4655
(lp4656
g2362
ag100
asS'6/24/1997'
p4657
(lp4658
S'Heritage Bancorp,Montana'
p4659
aS'United Financial Corp,MT'
p4660
asS'6/24/1994'
p4661
(lp4662
S'Twin City Corp'
p4663
ag2351
asS'12/1/2006'
p4664
(lp4665
S'Bank of Weatherford'
p4666
aS'Columbia Financial Corp'
p4667
asS'12/1/2003'
p4668
(lp4669
S'First Carolina State Bk,NC'
p4670
ag1350
asS'11/4/1998'
p4671
(lp4672
S'Homebanc Corp,Guntersville,AL'
p4673
ag4084
asS'11/4/1996'
p4674
(lp4675
S'United Carolina Bancshares'
p4676
ag1136
asS'11/4/1997'
p4677
(lp4678
S'St Mary Holding Corp'
p4679
ag237
asS'11/4/1994'
p4680
(lp4681
S'STABA Bancshares Inc'
p4682
ag336
asS'6/17/1986'
p4683
(lp4684
S'First NE Bankshares, MA'
p4685
aS'Hartford National Corp, CT'
p4686
asS'6/17/1985'
p4687
(lp4688
S'First Atlanta Corp,Atlanta,GA'
p4689
ag16
asS'4/17/2014'
p4690
(lp4691
S'Florida Traditions Bank'
p4692
ag1222
asS'11/13/2013'
p4693
(lp4694
S'SCB Bancorp Inc'
p4695
ag3757
asS'12/3/2015'
p4696
(lp4697
S'CBS Financial Corp'
p4698
aS'Charter Financial Corp'
p4699
asS'4/13/1989'
p4700
(lp4701
S'ABT Bancshares Corp'
p4702
ag619
asS'10/14/1996'
p4703
(lp4704
S'Independence Bancorp Inc,NJ'
p4705
ag1178
asS'7/25/1985'
p4706
(lp4707
S'Southern Natl Bankshares, GA'
p4708
ag1084
asS'10/14/1994'
p4709
(lp4710
S'United Citizens Bk,Alchua,Fl'
p4711
aS'Southeastern Banking Corp'
p4712
asS'10/14/1993'
p4713
(lp4714
S'Candlewood Bank & Trust Co'
p4715
aS'New Milford Bank & Trust Co'
p4716
asS'10/14/1992'
p4717
(lp4718
S'Charter Oak Financial Corp'
p4719
ag750
asS'2/22/2005'
p4720
(lp4721
S'Somonauk FSB Bancorp Inc,IL'
p4722
aS'Princeton National Bancorp,IL'
p4723
asS'8/9/1999'
p4724
(lp4725
S'Union Bankshares Ltd,Denver,CO'
p4726
ag1761
asS'8/9/1993'
p4727
(lp4728
S'San Diego Financial Corp'
p4729
ag473
asS'7/25/1989'
p4730
(lp4731
S'Chesapeake Bank Corp'
p4732
ag2595
asS'7/25/1988'
p4733
(lp4734
S'Indian Head Banks Inc, Nashua'
p4735
aS'Fleet/Norstar Financial Grp,RI'
p4736
asS'11/29/1995'
p4737
(lp4738
S'First Commercial Holding Corp'
p4739
ag4427
asS'2/24/1987'
p4740
(lp4741
S'Rainier Bancorporation,WA'
p4742
ag119
asS'7/19/1996'
p4743
(lp4744
S'South Valley Bancorporation,CA'
p4745
ag4381
asS'7/19/1995'
p4746
(lp4747
S'Premier Bancorp,Baton Rouge,LA'
p4748
ag205
asS'9/19/2005'
p4749
(lp4750
S'TexasBanc Holding Co,TX'
p4751
ag514
asS'5/8/2001'
p4752
(lp4753
S'Post Bancorp Inc'
p4754
aS'Team Financial Inc'
p4755
asS'9/19/2000'
p4756
(lp4757
S'Friendship Community Bank,FL'
p4758
aS'PAB Bankshares Inc'
p4759
asS'12/9/2010'
p4760
(lp4761
S'Center Financial Corp,LA,CA'
p4762
ag2179
asS'12/9/2011'
p4763
(lp4764
S'East Texas Financial Services'
p4765
ag36
asS'3/22/1996'
p4766
(lp4767
S'King George State Bank,VA'
p4768
aS'Union Bankshares Ltd,Denver,CO'
p4769
asS'9/19/2008'
p4770
(lp4771
S'Amer Home Bk,Mountville,PA'
p4772
aS'First Chester County Corp,PA'
p4773
asS'4/29/1998'
p4774
(lp4775
S'Tri-County Bancshares Inc,KS'
p4776
ag1761
asS'1/31/1991'
p4777
(lp4778
S'Plaza National Bank,Dallas,TX'
p4779
ag147
asS'4/29/1991'
p4780
(lp4781
S'1st Heritage Bank,Illinois'
p4782
ag3400
asS'4/29/1997'
p4783
(lp4784
S'SC Bancorp,Anaheim,California'
p4785
aS'Western Bancorp,California'
p4786
asS'4/29/1996'
p4787
(lp4788
S'TAC Bancshares,Miami Florida'
p4789
ag1122
asS'4/29/1994'
p4790
(lp4791
S'White County Bancshares Inc'
p4792
ag1835
asS'4/11/1990'
p4793
(lp4794
S'Citizens State Bank,Kiel,WI'
p4795
ag4498
asS'4/11/1994'
p4796
(lp4797
S'Atlanfed Bancorp Inc'
p4798
ag4
asS'4/11/1995'
p4799
(lp4800
S'First Natl Bk of Paoli,Indiana'
p4801
ag975
asS'6/10/1994'
p4802
(lp4803
S'J Hanson Svngs Bnk-Branches(4)'
p4804
ag257
asS'10/4/1999'
p4805
(lp4806
S'Six Rivers National Bank,CA'
p4807
aS'North Valley Bancorp'
p4808
asS'10/3/1996'
p4809
(lp4810
S'Country Bank Shares Corp,WI'
p4811
ag40
asS'3/14/1994'
p4812
(lp4813
S'Cornerstone Bank Group Inc'
p4814
ag1299
asS'3/14/1995'
p4815
(lp4816
S'First Merchants Bancorp,WV'
p4817
ag3191
asS'7/16/1998'
p4818
(lp4819
S'Southwest National Corp,PA'
p4820
ag383
asS'3/14/1997'
p4821
(lp4822
S'Security Capital,Milwaukee,WI'
p4823
ag1206
asS'3/14/1990'
p4824
(lp4825
S'Farmers Bank and Trust Co'
p4826
ag178
asS'9/4/2002'
p4827
(lp4828
S'MetroBanCorp,Indianapolis,IN'
p4829
ag4313
asS'7/16/1993'
p4830
(lp4831
S'Great Southern Bancorp Inc'
p4832
ag412
asS'4/16/2001'
p4833
(lp4834
S'Wachovia Corp,Winston-Salem,NC'
p4835
ag56
asS'7/16/1997'
p4836
(lp4837
S'ArgentBank,Thibodaux,Louisiana'
p4838
ag336
asS'8/14/2009'
p4839
(lp4840
S'Colonial BancGroup Inc-Bkg'
p4841
ag491
asS'11/30/1998'
p4842
(lp4843
S'Chase Bank of TX-Beaumont Op'
p4844
ag336
asS'9/12/2013'
p4845
(lp4846
S'Metropolitan National Bank,AR'
p4847
ag3177
asS'10/16/2003'
p4848
(lp4849
S'Pacific Crest Capital Inc'
p4850
ag4381
asS'11/30/1992'
p4851
(lp4852
S'Centennial Savings Bank FSB'
p4853
aS'Aspen Bancshares Inc,Aspen,CO'
p4854
asS'11/30/1994'
p4855
(lp4856
S'Bellbrook Bancorp Inc'
p4857
aS'BancFirst Ohio Corp,OH'
p4858
asS'4/5/2006'
p4859
(lp4860
S'Community Capital Bank,NY'
p4861
aS'Carver Bancorp Inc,NY,NY'
p4862
asS'7/26/2000'
p4863
(lp4864
S'TALBOT BANCSHARES INC'
p4865
ag64
asS'1/27/2004'
p4866
(lp4867
S'Unizan Financial Corp,OH'
p4868
ag750
asS'7/26/2007'
p4869
(lp4870
S'FNB Corp,Christianburg,VA'
p4871
aS'Virginia Finl Grp,Culpeper,VA'
p4872
asS'8/19/1999'
p4873
(lp4874
S'Anson Bancorp Inc,Wadesboro,NC'
p4875
aS'Uwharrie Capital Corp,NC'
p4876
asS'7/31/1991'
p4877
(lp4878
S'Valley Capital Corp,Las Vegas'
p4879
ag2391
asS'12/28/1987'
p4880
(lp4881
g3647
ag3077
asS'7/31/1992'
p4882
(lp4883
S'Peoples National Bk,Liberal,KS'
p4884
ag412
asS'7/31/1995'
p4885
(lp4886
S'Bank of Robstown'
p4887
ag1166
asS'7/31/1997'
p4888
(lp4889
S'Santa Monica Bank'
p4890
ag4786
asS'2/28/2012'
p4891
(lp4892
S'Premier Service Bank,Riverside'
p4893
aS'First CA Finl Grp Inc'
p4894
asS'7/31/1998'
p4895
(lp4896
S'Valley Bancorp,Sumner,WA'
p4897
ag1578
asS'4/7/1998'
p4898
(lp4899
S'Enfin Inc,Solon,Ohio'
p4900
ag528
asS'4/7/1992'
p4901
(lp4902
S'First Commercial Bancshares'
p4903
ag1343
asS'5/28/1999'
p4904
(lp4905
S'Black Diamond Savings Bank'
p4906
aS'FNB Financial Services Corp,NC'
p4907
asS'5/28/1998'
p4908
(lp4909
S'Pioneer Bancshares Inc,TN'
p4910
ag690
asS'9/1/2005'
p4911
(lp4912
S'Texas Community Bancshares,TX'
p4913
ag733
asS'5/28/1997'
p4914
(lp4915
S'Unicorp Bancshares-Texas,TX'
p4916
ag336
asS'4/30/2001'
p4917
(lp4918
S'National City Bancorp'
p4919
ag947
asS'11/5/2014'
p4920
(lp4921
S'Montana Cmnty Bks,Ronan,MT'
p4922
ag249
asS'12/4/2006'
p4923
(lp4924
S'United Heritage Bankshares'
p4925
ag947
asS'12/4/2000'
p4926
(lp4927
S'Tri-County Bank,Trenton,FL'
p4928
ag2552
asS'12/4/2001'
p4929
(lp4930
S'Century Bancshares Inc'
p4931
ag947
asS'11/22/1993'
p4932
(lp4933
S'Lake Shore Bancorp Inc'
p4934
ag601
asS'11/22/1995'
p4935
(lp4936
S'FB&T Financial Corp'
p4937
ag683
asS'11/22/1994'
p4938
(lp4939
S'First Denver Corp'
p4940
ag1018
asS'10/25/2011'
p4941
(lp4942
S'The Connecticut Bk & Trust Co'
p4943
ag3555
asS'10/20/1988'
p4944
(lp4945
S'Concorde Bank,Dallas,Texas'
p4946
ag1966
asS'4/21/1988'
p4947
(lp4948
S'C&P Bank Corp,Pensacola,FL'
p4949
ag356
asS'10/26/1992'
p4950
(lp4951
S'Financial Concepts Bancorp'
p4952
ag1166
asS'10/26/1993'
p4953
(lp4954
S'Suburban Bancshares Inc'
p4955
ag1022
asS'6/12/2013'
p4956
(lp4957
S'Morrill Bancshares Inc'
p4958
ag1251
asS'10/25/2010'
p4959
(lp4960
S'Wilber Corp'
p4961
ag449
asS'8/8/1994'
p4962
(lp4963
S'NBM Bancorp Inc,Ohio'
p4964
ag40
asS'6/12/1998'
p4965
(lp4966
S'Hometown Bancshares Inc'
p4967
ag1582
asS'3/15/1993'
p4968
(lp4969
S'Harvest Bancorp Inc'
p4970
ag683
asS'12/24/2004'
p4971
(lp4972
S'New York National Bank,NY'
p4973
aS'Hudson Valley Holding Corp,NY'
p4974
asS'8/17/2015'
p4975
(lp4976
S'National Penn Bancshares,PA'
p4977
ag491
asS'12/24/2003'
p4978
(lp4979
S'BSB Bancorp Inc,Binghamton,NY'
p4980
ag3753
asS'10/27/1995'
p4981
(lp4982
S'Henrietta Bancshares'
p4983
ag1166
asS'10/27/1997'
p4984
(lp4985
S'Regency Financial Shares,VA'
p4986
aS'MainStreet BankGroup Inc,VA'
p4987
asS'9/22/2010'
p4988
(lp4989
S'Cadence Financial Corp'
p4990
ag1527
asS'10/27/1993'
p4991
(lp4992
S'First National Bk,Madison,Ill'
p4993
ag68
asS'10/27/1998'
p4994
(lp4995
S'Sweet Water Bancshares Inc'
p4996
ag4648
asS'3/23/1992'
p4997
(lp4998
S'Team Bancshares Inc'
p4999
ag205
asS'3/23/1990'
p5000
(lp5001
S'Eastchester Financial Corp'
p5002
ag487
asS'10/22/1998'
p5003
(lp5004
S'South Florida Bank Hldg Corp'
p5005
ag844
asS'3/23/1995'
p5006
(lp5007
S'GN Bancorp'
p5008
ag1885
asS'10/22/1997'
p5009
(lp5010
S'Green Country Bank,Miami,OK'
p5011
ag4517
asS'9/15/1989'
p5012
(lp5013
S'Flat Top Bankshares Inc'
p5014
aS'First Community Bancshares,WV'
p5015
asS'10/22/1993'
p5016
(lp5017
S'PNB Bankshares Inc'
p5018
ag1343
asS'5/11/2007'
p5019
(lp5020
S'Pocono Cmnty Bk,Stroudsburg,PA'
p5021
aS'First Keystone Corp'
p5022
asS'8/17/2012'
p5023
(lp5024
S'Western Liberty Bancorp,NV'
p5025
aS'Western Alliance Bancorp,NV'
p5026
asS'5/29/1998'
p5027
(lp5028
S'Wayne Bancorp Inc,Wayne,NJ'
p5029
ag375
asS'11/1/1994'
p5030
(lp5031
S'Union Bancshares,Wichita,KS'
p5032
ag2351
asS'5/29/1997'
p5033
(lp5034
S'Sabina Bank,Sabina,Ohio'
p5035
ag28
asS'10/23/1990'
p5036
(lp5037
S'Landmark Bancshares Corp'
p5038
ag68
asS'5/16/1989'
p5039
(lp5040
S'Commercial National Corp'
p5041
ag2197
asS'2/6/1996'
p5042
(lp5043
S'Lafayette American Bancorp Inc'
p5044
ag1395
asS'10/23/1995'
p5045
(lp5046
S'First National Bancorp,Georgia'
p5047
ag237
asS'11/11/1998'
p5048
(lp5049
S'Bancwest Finl Corp,WA'
p5050
ag253
asS'10/8/1993'
p5051
(lp5052
S'Liberty Bank,Honolulu,Hawaii'
p5053
ag2391
asS'10/8/1992'
p5054
(lp5055
S'First American State Bk,WA'
p5056
ag1923
asS'11/1/1991'
p5057
(lp5058
S'First Geneva Banqueshares Inc'
p5059
ag221
asS'7/24/1998'
p5060
(lp5061
S'Peninsula Bank of San Diego,CA'
p5062
ag4786
asS'3/24/2015'
p5063
(lp5064
S'Pinnacle Bk of S Carolina'
p5065
aS'Carolina Alliance Bank'
p5066
asS'11/17/1989'
p5067
(lp5068
S'Warner Center Bk,CA'
p5069
ag92
asS'2/6/1992'
p5070
(lp5071
g220
ag205
asS'12/31/1986'
p5072
(lp5073
S'Beneficial National Bank'
p5074
ag601
asS'12/31/1985'
p5075
(lp5076
S'Continental Bancor, Scottsdale'
p5077
aS'Chase Manhattan Corp'
p5078
asS'12/17/1986'
p5079
(lp5080
S'Old Natl Bancorp, Spokane, WA'
p5081
ag2367
asS'12/15/2000'
p5082
(lp5083
S'Peoples & Union Bk,Lewisburg'
p5084
aS'First Farmers & Merchants Corp'
p5085
asS'12/15/2005'
p5086
(lp5087
S'Main Street Banks Inc,GA'
p5088
ag491
asS'12/15/2004'
p5089
(lp5090
S'Citizens Bank Hldg Co,ID'
p5091
ag249
asS'5/29/2014'
p5092
(lp5093
S'Virginia Co Bank,Newport News'
p5094
aS'Eastern Virginia Bankshares'
p5095
asS'7/2/1984'
p5096
(lp5097
S'Trust Co of Georgia,Atlanta'
p5098
aS'Sun Banks Inc,Orlando,Florida'
p5099
asS'7/2/1987'
p5100
(lp5101
S'Bank of Bellevue,Nashville,TN'
p5102
ag56
asS'9/11/1995'
p5103
(lp5104
S'Summit Bancorporation'
p5105
ag2132
asS'3/24/2000'
p5106
(lp5107
S'Los Robles Bancorp,California'
p5108
ag4381
asS'1/16/1987'
p5109
(lp5110
S'Eastville Bank, Eastville, VA'
p5111
ag1148
asS'10/5/2006'
p5112
(lp5113
S'Signature Financial Holdings'
p5114
ag461
asS'2/20/1985'
p5115
(lp5116
S'Landmark Banking Corp of FL'
p5117
ag1430
asS'2/20/1987'
p5118
(lp5119
S'Suncook Bank,Suncook,NH'
p5120
aS'Bank of New Hampshire Corp'
p5121
asS'1/7/2008'
p5122
(lp5123
S'KLT Bancshares Inc'
p5124
aS'Liberty Bancorp Inc'
p5125
asS'2/4/2005'
p5126
(lp5127
S'First Alachua Bkg Corp,FL'
p5128
ag2514
asS'2/4/2000'
p5129
(lp5130
S'1st Choice Financial Corp'
p5131
ag1357
asS'1/8/2009'
p5132
(lp5133
S'Butler Wick Trust Co Inc'
p5134
aS'Farmers National Banc Corp'
p5135
asS'9/10/2013'
p5136
(lp5137
S'Tower Financial Corporation'
p5138
ag1092
asS'4/22/2015'
p5139
(lp5140
S'Palmetto Bancshares Inc'
p5141
ag1835
asS'7/6/1988'
p5142
(lp5143
S'GuarantyShares of WV'
p5144
aS'National Banc of Commerce Co'
p5145
asS'1/23/1986'
p5146
(lp5147
S'Spartan Bankcorp,E Lansing,MI'
p5148
ag205
asS'1/23/1985'
p5149
(lp5150
S'Guaranty Bancshares Inc'
p5151
aS'Louisiana Bancshares Inc'
p5152
asS'1/23/1989'
p5153
(lp5154
S'Midwest Financial Group Inc'
p5155
ag416
asS'4/29/2009'
p5156
(lp5157
S'Cmnty First Bank,Corydon,IN'
p5158
aS'First Svgs Finl Grp Inc,IN'
p5159
asS'12/30/1988'
p5160
(lp5161
S'Lincoln Trust Co'
p5162
aS'Quincy Savings Bank,Quincy,MA'
p5163
asS'3/30/1993'
p5164
(lp5165
S'Commonwealth Bancshares Corp'
p5166
ag1381
asS'5/3/2012'
p5167
(lp5168
S'Alliance Bankshares Corp,VA'
p5169
aS'WashingtonFirst Bankshare Inc'
p5170
asS'6/9/1994'
p5171
(lp5172
S'Dickenson Buchanan Bank'
p5173
aS'Premier Bankshs,Bluefield,VA'
p5174
asS'6/17/1991'
p5175
(lp5176
S'Southeast Banking Corp,Miami'
p5177
ag56
asS'3/28/1995'
p5178
(lp5179
S'Corporate Bank'
p5180
ag2599
asS'6/17/1993'
p5181
(lp5182
S'First Corp'
p5183
ag1768
asS'5/18/1989'
p5184
(lp5185
S'Northern Bk,Northern Natl Bk'
p5186
ag119
asS'2/5/1998'
p5187
(lp5188
S'Button Gwinnett Financial'
p5189
ag665
asS'10/15/2009'
p5190
(lp5191
S'Citizens First Corp'
p5192
ag3779
asS'10/15/2003'
p5193
(lp5194
S'Millennium Bank,Malvern,PA'
p5195
ag495
asS'7/25/1991'
p5196
(lp5197
S'First Natl Bank of N Idaho'
p5198
ag1743
asS'10/15/2001'
p5199
(lp5200
S'Lafayette Bancorp,Lafayette,IN'
p5201
ag590
asS'7/25/1994'
p5202
(lp5203
S'PV Financial'
p5204
ag1897
asS'7/25/1995'
p5205
(lp5206
S'First Sterling Bancorp Inc'
p5207
ag992
asS'7/25/1996'
p5208
(lp5209
g1848
aS'Bank of Granite Corp'
p5210
asS'7/25/1997'
p5211
(lp5212
S'UniBank,Steubenville,Ohio'
p5213
ag707
asS'4/13/1998'
p5214
(lp5215
S'First Chicago NBD Corp'
p5216
ag205
asS'2/22/2011'
p5217
(lp5218
S'OMNI Bancshares Inc'
p5219
ag1321
asS'4/13/1990'
p5220
(lp5221
S'Empire Bancorp'
p5222
ag2440
asS'11/16/2005'
p5223
(lp5224
S'SNB Bancshares Inc,TX'
p5225
ag36
asS'12/27/1999'
p5226
(lp5227
S'Sierra National,Tehachapi,CA'
p5228
aS'Bank of the Sierra,California'
p5229
asS'2/24/1992'
p5230
(lp5231
S'Merchants Nat Bk&Tr,Union Natl'
p5232
aS'ONBANCorp Inc,Syracuse,NY'
p5233
asS'7/19/1985'
p5234
(lp5235
S'Sylvania BanCorp,Sylvania,OH'
p5236
aS'Toledo Trustcorp Inc'
p5237
asS'12/27/1996'
p5238
(lp5239
S'First Capital Bancorp'
p5240
ag2197
asS'11/18/2003'
p5241
(lp5242
S'Canaan Natl Bancorp Inc,CT'
p5243
ag4252
asS'11/18/2002'
p5244
(lp5245
S'Bridge View Bancorp,NJ'
p5246
ag213
asS'7/27/2009'
p5247
(lp5248
S'Harleysville National Corp,PA'
p5249
ag225
asS'12/27/1993'
p5250
(lp5251
S'Peoples Financial Services'
p5252
ag3919
asS'4/29/1986'
p5253
(lp5254
S'Pennsylvania Natl Financial'
p5255
ag1014
asS'12/29/2005'
p5256
(lp5257
S'Intermountain First Bancorp'
p5258
ag5026
asS'7/27/2005'
p5259
(lp5260
S'First Natl Bancshares Inc,FL'
p5261
ag461
asS'7/27/2007'
p5262
(lp5263
S'USB Holding Co Inc,Orangeburg'
p5264
ag1856
asS'7/27/2006'
p5265
(lp5266
S'Fidelity Bankshares Inc,FL'
p5267
ag1202
asS'6/27/2012'
p5268
(lp5269
S'Community National Bk,Bellaire'
p5270
ag815
asS'6/27/2011'
p5271
(lp5272
S'Santa Lucia Bancorp'
p5273
aS'Mission Community Bancorp'
p5274
asS'3/28/2007'
p5275
(lp5276
S'Town Ctr Bancorp,Portland,OR'
p5277
ag1923
asS'8/1/1986'
p5278
(lp5279
S'American Security Corp,DC'
p5280
aS'Maryland National Corp'
p5281
asS'2/2/1993'
p5282
(lp5283
S'Huntley Bancshares Inc'
p5284
aS'Suburban Bancorp,Palatine,IL'
p5285
asS'4/28/2014'
p5286
(lp5287
S'Bank Of Atlanta,Atlanta,GA'
p5288
ag2282
asS'5/19/2005'
p5289
(lp5290
S'Bank of Commerce,Henderson,NV'
p5291
ag3502
asS'6/8/1998'
p5292
(lp5293
S'Wells Fargo & Co'
p5294
ag1166
asS'6/8/1993'
p5295
(lp5296
S'Texas Commerce-Longview,1 Oth'
p5297
ag619
asS'6/8/1992'
p5298
(lp5299
S'First National Bk,Rockport,TX'
p5300
aS'Victoria Bankshares Inc'
p5301
asS'2/21/2001'
p5302
(lp5303
S'Golden Isles Financial Hldgs'
p5304
ag2552
asS'1/27/2014'
p5305
(lp5306
S'VantageSouth Bancshares Inc'
p5307
aS'Yadkin Financial Corp'
p5308
asS'1/27/2015'
p5309
(lp5310
S'National Bancshares Corp'
p5311
ag5135
asS'6/14/2007'
p5312
(lp5313
S'Cardinal State Bank'
p5314
aS'Yadkin Valley Financial Corp'
p5315
asS'1/4/2002'
p5316
(lp5317
g873
ag60
asS'7/30/2003'
p5318
(lp5319
S'Community Bk,Pilot Mtn,NC'
p5320
aS'Southern Community Finan Corp'
p5321
asS'10/18/1984'
p5322
(lp5323
S'Rapides Bk&Tr,Alexandria,LA'
p5324
ag52
asS'12/5/2000'
p5325
(lp5326
S'Century South Banks Inc,GA'
p5327
ag491
asS'12/5/2005'
p5328
(lp5329
S'Hinsbrook Bancshares Inc,IL'
p5330
ag645
asS'9/14/2011'
p5331
(lp5332
S'Stellar Business Bank'
p5333
aS'AltaPacific Bancorp'
p5334
asS'7/31/1987'
p5335
(lp5336
S'Ypsilanti Savings Bank,MI'
p5337
ag3077
asS'5/26/2010'
p5338
(lp5339
S'Central Jersey Bancorp,NJ'
p5340
aS'Kearny Financial Corp'
p5341
asS'11/20/1998'
p5342
(lp5343
S'La Place Bancshares Inc,LA'
p5344
ag293
asS'6/29/2000'
p5345
(lp5346
S'First Bank & Trust,Newport Bea'
p5347
ag100
asS'3/15/2000'
p5348
(lp5349
S'First Counties Bank,Clearlake'
p5350
ag1897
asS'11/20/1990'
p5351
(lp5352
S'Valley Bank Hldg,Security,CO'
p5353
ag1818
asS'12/20/2011'
p5354
(lp5355
S'Peoples Bancorp Inc,Easley,SC'
p5356
ag2378
asS'11/20/1995'
p5357
(lp5358
S'Du Quoin Bancorp Inc'
p5359
ag1768
asS'3/15/2005'
p5360
(lp5361
S'West Metro Fin Svcs Inc'
p5362
aS'First Horizon National Corp,TN'
p5363
asS'11/20/1997'
p5364
(lp5365
S'Marshall National Bk & Tr,VA'
p5366
ag1148
asS'11/20/1996'
p5367
(lp5368
S'Aspen Bancshares Inc,Aspen,CO'
p5369
ag398
asS'5/12/1998'
p5370
(lp5371
S'First National Bank of Pickens'
p5372
ag1458
asS'6/30/2015'
p5373
(lp5374
S'First Natl Bk,Fredericksburg'
p5375
aS'Citizens Finl Svcs Inc'
p5376
asS'12/12/1984'
p5377
(lp5378
S'First Bank of Grantsburg,WI'
p5379
aS'First Wisconsin Corp'
p5380
asS'8/10/1993'
p5381
(lp5382
S'Citizens National Corp'
p5383
ag2522
asS'5/12/1994'
p5384
(lp5385
S'Citizens Holdings Corp'
p5386
ag739
asS'8/20/1986'
p5387
(lp5388
S'First Tuskaloosa Corp,Alabama'
p5389
ag2522
asS'8/20/1985'
p5390
(lp5391
S'Arizona Bancwest Corp,Phoenix'
p5392
ag309
asS'5/12/1997'
p5393
(lp5394
S'Indian Rocks State Bank'
p5395
ag352
asS'3/30/2009'
p5396
(lp5397
S'First Market Bank,Richmond'
p5398
ag3740
asS'12/7/2015'
p5399
(lp5400
S'Wilshire Bancorp Inc'
p5401
ag1361
asS'5/7/1986'
p5402
(lp5403
S'American Fletcher,Indianapolis'
p5404
ag205
asS'6/14/1994'
p5405
(lp5406
S'F&C Bancshares Inc'
p5407
ag416
asS'6/14/1996'
p5408
(lp5409
S'Allied Bankshares Inc,GA'
p5410
ag237
asS'12/14/2001'
p5411
(lp5412
S'Brookhollow Bancshares,Dallas'
p5413
ag237
asS'12/14/2006'
p5414
(lp5415
S'CN Bancorp Inc'
p5416
ag2193
asS'5/9/2000'
p5417
(lp5418
S'Western Holdings Bancorp'
p5419
ag3674
asS'5/9/2001'
p5420
(lp5421
S'California Center Bank,CA'
p5422
ag1377
asS'7/1/2013'
p5423
(lp5424
S'NorCal Community Bancorp'
p5425
aS'Bank of Marin Bancorp'
p5426
asS'7/14/1989'
p5427
(lp5428
g689
ag1808
asS'3/25/1993'
p5429
(lp5430
S'Trans Kentucky Bancorp'
p5431
ag3919
asS'11/29/2005'
p5432
(lp5433
S'Wachovia Corp-Corporate Trust'
p5434
ag1757
asS'6/12/2001'
p5435
(lp5436
S'Belfast Hldg Co'
p5437
aS'First Pulaski Natl Corp'
p5438
asS'12/16/2003'
p5439
(lp5440
S'Trust Co of New Jersey,NJ'
p5441
ag487
asS'9/22/2004'
p5442
(lp5443
S'First Community Bancorp Inc,FL'
p5444
aS'Fidelity Bankshares Inc,FL'
p5445
asS'4/28/2015'
p5446
(lp5447
S'Magna Bank'
p5448
ag510
asS'12/8/2014'
p5449
(lp5450
S'Georgia Commerce Bancshares'
p5451
ag1321
asS'9/22/2000'
p5452
(lp5453
S'Bank of San Francisco,San Fran'
p5454
ag100
asS'4/28/2011'
p5455
(lp5456
S'State Bancorp Inc,NY'
p5457
ag375
asS'10/1/2000'
p5458
(lp5459
S'United National-Branches(2)'
p5460
aS'First West Virginia Bancorp'
p5461
asS'10/2/1992'
p5462
(lp5463
S'Peoples Holding Co Inc,MI'
p5464
ag147
asS'9/7/2004'
p5465
(lp5466
S'Southwestern Bancshares Inc,TX'
p5467
ag12
asS'9/7/2005'
p5468
(lp5469
S'First Manhattan Bancorp Inc,KS'
p5470
aS'Landmark Bancorp Inc'
p5471
asS'10/2/1995'
p5472
(lp5473
S'Shawmut Bank-MA Branches(13)'
p5474
aS'Banknorth Group Inc,VT'
p5475
asS'9/7/2007'
p5476
(lp5477
S'KNBT Bancorp Inc,Bethlehem,PA'
p5478
ag1339
asS'10/5/2001'
p5479
(lp5480
S'Ocean National Corp,Maine'
p5481
ag765
asS'10/22/1986'
p5482
(lp5483
S'Madison Financial Corp,IL'
p5484
aS'Exchange International Corp'
p5485
asS'12/11/2006'
p5486
(lp5487
S'F&M Bank, Spokane, Washington'
p5488
ag2656
asS'4/4/2000'
p5489
(lp5490
S'First Natl Bancshares,LA'
p5491
ag237
asS'4/6/1987'
p5492
(lp5493
S'Central Natl BK, Buckhannon,WV'
p5494
ag2861
asS'12/11/2008'
p5495
(lp5496
S'Peoples Bk,GA-Br,Lithonia,GA'
p5497
aS'Citizens Bancshares Corp,GA'
p5498
asS'11/1/2013'
p5499
(lp5500
S'CapStone Bank,Raleigh,NC'
p5501
aS'NewBridge Bancorp'
p5502
asS'2/7/2008'
p5503
(lp5504
S'1st Choice Bancorp Inc,TX'
p5505
ag36
asS'11/22/2006'
p5506
(lp5507
S'Clayco Banc Corp'
p5508
ag661
asS'2/7/2000'
p5509
(lp5510
S'One Valley Bancorp Inc,WV'
p5511
ag491
asS'3/6/2013'
p5512
(lp5513
S'San Diego Trust Bank'
p5514
ag2966
asS'7/24/1985'
p5515
(lp5516
S'Pan American Banks,Miami,FL'
p5517
ag1084
asS'12/3/1987'
p5518
(lp5519
S'Northern of Tennessee Corp'
p5520
ag690
asS'10/8/1985'
p5521
(lp5522
S'Money Management Corp,Indiana'
p5523
ag205
asS'5/16/1995'
p5524
(lp5525
S'Central Corp,Monroe,Louisiana'
p5526
ag52
asS'6/21/2013'
p5527
(lp5528
S'Ozarks Legacy Community Finl'
p5529
ag387
asS'10/23/2015'
p5530
(lp5531
S'CIC Bancshares Inc'
p5532
ag1251
asS'9/20/1995'
p5533
(lp5534
S'City Bankshares,Oklahoma City'
p5535
ag3104
asS'9/20/1990'
p5536
(lp5537
S'NBSC Corp'
p5538
ag1136
asS'9/20/1993'
p5539
(lp5540
S'Valley Bancorp,Appleton,WI'
p5541
ag1206
asS'9/3/2008'
p5542
(lp5543
S'Lincoln Bancorp,IN'
p5544
ag590
asS'8/11/1987'
p5545
(lp5546
g5084
ag107
asS'1/16/1991'
p5547
(lp5548
S'Central Trust-4 Ohio Branches'
p5549
ag205
asS'2/20/1998'
p5550
(lp5551
S'PNC Bank Corp-Branches(16),'
p5552
aS'First Western Bancorp Inc,PA'
p5553
asS'1/16/1995'
p5554
(lp5555
S'United Bancorp of Kentucky'
p5556
ag1202
asS'5/23/2008'
p5557
(lp5558
g4964
aS'Rurban Financial Corp'
p5559
asS'2/20/1992'
p5560
(lp5561
S'Union of Arkansas, Little Rock'
p5562
ag506
asS'5/23/2005'
p5563
(lp5564
S'Pacifica Bancorp Inc,Bellevue'
p5565
ag2162
asS'10/5/2015'
p5566
(lp5567
S'Cmnty Bk of S Florida Inc'
p5568
ag1423
asS'2/20/1997'
p5569
(lp5570
S'Great Southern Bancorp,Florida'
p5571
ag80
asS'2/20/1995'
p5572
(lp5573
S'Compass Bancshares Inc,AL'
p5574
ag56
asS'2/7/2013'
p5575
(lp5576
S'First M&F Corp,Kosciusko,MS'
p5577
ag3330
asS'1/7/2010'
p5578
(lp5579
S'Oak Financial Corp,MI'
p5580
ag1291
asS'10/12/1988'
p5581
(lp5582
S'New Palestine Bancorp'
p5583
ag844
asS'9/16/2003'
p5584
(lp5585
S'Mid Valley Bank, Red Bluff,CA'
p5586
ag4260
asS'10/12/1987'
p5587
(lp5588
S'Lafayette Trust Bk,Easton,PA'
p5589
ag217
asS'9/10/2001'
p5590
(lp5591
S'Signal Financial Corp'
p5592
ag1885
asS'9/28/1999'
p5593
(lp5594
g4955
aS'Columbia Bancorp Inc'
p5595
asS'7/23/1993'
p5596
(lp5597
S'First Amarillo Bancorp Inc'
p5598
ag878
asS'8/31/2001'
p5599
(lp5600
S'Bank of Tidewater,VA Beach,VA'
p5601
ag432
asS'9/8/2004'
p5602
(lp5603
S'First Financial Bancorp,CA'
p5604
aS'Placer Sierra Bancshares,CA'
p5605
asS'12/30/1997'
p5606
(lp5607
S'Sterling West Bancorp,CA'
p5608
aS'Pacific Bank NA,CA'
p5609
asS'12/30/1996'
p5610
(lp5611
S'Liberty Bancorp Inc,Oklahoma'
p5612
ag205
asS'12/30/1993'
p5613
(lp5614
S'Jefferson Bancshares Inc'
p5615
ag1733
asS'12/30/1991'
p5616
(lp5617
S'Affiliated Bankshares of CO'
p5618
ag205
asS'5/18/1998'
p5619
(lp5620
S'Summit Bankshares Inc,Raphine'
p5621
aS'One Valley Bancorp Inc,WV'
p5622
asS'5/5/1998'
p5623
(lp5624
S'Firstbank,Dallas,TX'
p5625
ag80
asS'11/8/1994'
p5626
(lp5627
S'Peoples Bk & Tr,Sunman,IN'
p5628
ag305
asS'5/18/1992'
p5629
(lp5630
S'First Florida Banks Inc'
p5631
ag56
asS'5/5/1994'
p5632
(lp5633
S'Mineral King Bancorp Inc'
p5634
ag2363
asS'5/5/1997'
p5635
(lp5636
S'First Michigan Bank Corp,MI'
p5637
ag750
asS'5/15/1996'
p5638
(lp5639
S'Old Natl Bank of Huntington,WV'
p5640
ag3191
asS'5/18/1994'
p5641
(lp5642
S'Old Stone Bank of Calfornia'
p5643
ag2588
asS'5/5/1992'
p5644
(lp5645
S'FWNB Bancshares,Carrollton,TX'
p5646
ag147
asS'12/17/2015'
p5647
(lp5648
S'ProAmerica Bank'
p5649
aS'Pacific Commerce Bank'
p5650
asS'8/7/2003'
p5651
(lp5652
S'Village Bancorp Inc'
p5653
ag645
asS'10/13/2005'
p5654
(lp5655
S'Great Eastern Bank,New York,NY'
p5656
ag2162
asS'4/2/1993'
p5657
(lp5658
S'Valley Bancshares Inc'
p5659
ag3635
asS'4/2/1992'
p5660
(lp5661
S'Volunteer Bancshares Inc'
p5662
aS'Bancorp of Mississippi,Tupelo'
p5663
asS'4/2/1990'
p5664
(lp5665
S'InBancshares'
p5666
ag139
asS'4/2/1996'
p5667
(lp5668
S'Home Federal,Hagerstown,MD'
p5669
ag2371
asS'1/19/1994'
p5670
(lp5671
S'Barrow Bancshares'
p5672
ag1673
asS'7/27/2011'
p5673
(lp5674
g5169
ag3019
asS'7/27/2015'
p5675
(lp5676
S'Sutter Cmnty Bk,Yuba,CA'
p5677
aS'Suncrest Bk,Visalia,California'
p5678
asS'12/23/1985'
p5679
(lp5680
g2992
aS'Summcorp,Fort Wayne,Indiana'
p5681
asS'6/27/2006'
p5682
(lp5683
S'Republic Bancorp Inc,Owosso,MI'
p5684
ag1287
asS'6/27/2007'
p5685
(lp5686
S'Alaska First Bank & Trust NA'
p5687
aS'Northrim Bancorp Inc'
p5688
asS'6/27/2001'
p5689
(lp5690
S'Park Meridian Financial Corp'
p5691
ag237
asS'1/24/1997'
p5692
(lp5693
S'Mercantile Bank,Sacramento,CA'
p5694
aS'SierraWest Bancorp,Truckee,CA'
p5695
asS'1/24/1996'
p5696
(lp5697
S'Union Cnty Natl Bancorp,IN'
p5698
ag590
asS'11/9/1994'
p5699
(lp5700
S'State Natl Bank of Marlow,OK'
p5701
ag3104
asS'1/23/1992'
p5702
(lp5703
S'Village Corp'
p5704
ag1818
asS'11/9/1993'
p5705
(lp5706
S'State First Financial Corp'
p5707
ag619
asS'11/9/1992'
p5708
(lp5709
S'Peoples Bancorp,Marietta,OH'
p5710
ag375
asS'8/21/1997'
p5711
(lp5712
S'Greenville Financial Corp,SC'
p5713
ag237
asS'8/21/1995'
p5714
(lp5715
S'Rancho Santa Fe National Bk,CA'
p5716
aS'FP Bancorp,Escondidio,CA'
p5717
asS'11/3/2015'
p5718
(lp5719
S'Floridian Financial Group Inc'
p5720
ag2806
asS'8/21/1998'
p5721
(lp5722
S'Anderson Cmnty Bank,Anderson'
p5723
ag590
asS'10/9/2012'
p5724
(lp5725
S'First Capital Bancshares Inc'
p5726
ag3562
asS'3/3/1987'
p5727
(lp5728
S'First Natl Bank of Fenton, MI'
p5729
ag205
asS'10/10/2002'
p5730
(lp5731
g4194
ag649
asS'10/10/2005'
p5732
(lp5733
S'Atlantic Bank of New York,NY'
p5734
ag4054
asS'10/9/2014'
p5735
(lp5736
S'Premier Coml Bk,Greensboro,NC'
p5737
ag5502
asS'2/9/2001'
p5738
(lp5739
S'FSL Holdings Inc,South Holland'
p5740
aS'MB Financial Inc,Chicago,IL'
p5741
asS'2/9/2000'
p5742
(lp5743
S'N Point Bancshares,Dawsonville'
p5744
ag1835
asS'2/9/2007'
p5745
(lp5746
S'Excel Bank Corp,Minneapolis,MN'
p5747
ag947
asS'4/7/2014'
p5748
(lp5749
S'MBT Bancorp,West Harrison,IN'
p5750
ag822
asS'3/18/2010'
p5751
(lp5752
S'Sterling Banks Inc'
p5753
aS'Roma Financial Corp'
p5754
asS'4/10/2012'
p5755
(lp5756
S'South Valley Bancorp Inc'
p5757
ag657
asS'5/5/2006'
p5758
(lp5759
S'Nuestra Tarjeta Servicios Inc'
p5760
aS'NBOG Bancorporation'
p5761
asS'7/30/2014'
p5762
(lp5763
S'Broward Finl Hldg Inc,FL'
p5764
ag1222
asS'7/30/2013'
p5765
(lp5766
S'Gulfstream Bancshares Inc'
p5767
ag1423
asS'10/18/1999'
p5768
(lp5769
S'Carolina Fincorp Inc,NC'
p5770
aS'FNB Corp'
p5771
asS'9/30/1986'
p5772
(lp5773
S'Popular Bankshares,Miami,FL'
p5774
ag582
asS'10/18/1993'
p5775
(lp5776
S'First Kentucky Bancorp Inc'
p5777
ag3858
asS'10/30/2015'
p5778
(lp5779
S'First Niagara Finl Group Inc'
p5780
ag1856
asS'10/30/2014'
p5781
(lp5782
S'Citizens Natl Bk,Meyersdale,PA'
p5783
aS'Riverview Financial Corp'
p5784
asS'4/25/1997'
p5785
(lp5786
S'Gateway Bancorp,KY'
p5787
ag60
asS'6/25/1996'
p5788
(lp5789
S'Mountain Parks Finl Corp,MN'
p5790
ag761
asS'6/25/1991'
p5791
(lp5792
S'C&S/Sovran Corp'
p5793
ag1084
asS'6/25/1992'
p5794
(lp5795
S'Security Bk,First Bk,Catoosa'
p5796
ag878
asS'7/18/1995'
p5797
(lp5798
S'Ponte Vedra Banking Corp'
p5799
ag72
asS'7/18/1996'
p5800
(lp5801
S'Farmers Banc,Mullica Hill,NJ'
p5802
ag4
asS'6/25/1998'
p5803
(lp5804
S'State Bank of South Orange'
p5805
ag1040
asS'1/30/1998'
p5806
(lp5807
S'BSM Bancorp,Santa Maria,CA'
p5808
aS'Mid-State Bk,Arroya Grande,CA'
p5809
asS'9/15/2003'
p5810
(lp5811
S'Southeast Texas Bancshares Inc'
p5812
ag649
asS'9/24/1992'
p5813
(lp5814
S'Sugar Creek National Bank,TX'
p5815
ag139
asS'5/26/2000'
p5816
(lp5817
S'Security Financial Corp'
p5818
ag5135
asS'9/24/1997'
p5819
(lp5820
S'Vectra Banking Corp,Denver,CO'
p5821
ag398
asS'9/24/1996'
p5822
(lp5823
S'Fort Brooke Bancorporation,FL'
p5824
ag80
asS'6/15/2004'
p5825
(lp5826
S'Encino State Bank,CA'
p5827
ag3433
asS'6/15/2006'
p5828
(lp5829
S'FCB Bancorp,Camarillo,CA'
p5830
aS'National Mercantile Bancorp'
p5831
asS'12/20/2006'
p5832
(lp5833
S'Sky Financial Group Inc,'
p5834
ag750
asS'12/12/1997'
p5835
(lp5836
S'Elmore County Bancshares Inc,'
p5837
aS'Peoples BancTrust,Selma,AL'
p5838
asS'6/19/2001'
p5839
(lp5840
S'CNB Finl Corp,Canajoharie,NY'
p5841
ag1054
asS'12/12/1995'
p5842
(lp5843
S'BayBanks,Boston,Massachusetts'
p5844
ag1280
asS'12/12/1994'
p5845
(lp5846
S'First Southern Bancorp,NC'
p5847
ag4427
asS'8/20/1998'
p5848
(lp5849
S'Jay Financial Corp,Portland,IN'
p5850
ag590
asS'8/20/1999'
p5851
(lp5852
S'Triangle Bancorp,Raleigh,NC'
p5853
ag4427
asS'12/12/1991'
p5854
(lp5855
S'Southeastern Bancshares Inc'
p5856
ag293
asS'10/11/1991'
p5857
(lp5858
S'First Interstate of Iowa Inc'
p5859
ag878
asS'8/20/1996'
p5860
(lp5861
S'UST Bank/Connecticut,CN'
p5862
ag1395
asS'10/11/1995'
p5863
(lp5864
S'River Bend Bancshares Inc'
p5865
ag68
asS'10/11/1996'
p5866
(lp5867
S'Hartsville Bancshares Inc,TN'
p5868
ag690
asS'8/20/1993'
p5869
(lp5870
S'Otwell State Bank Inc'
p5871
ag3936
asS'5/13/1993'
p5872
(lp5873
S'Key State Bank'
p5874
ag1291
asS'5/13/1992'
p5875
(lp5876
S'Security Finanical Holding Co'
p5877
aS'BB&T Financial Corp'
p5878
asS'3/30/2012'
p5879
(lp5880
S'Gateway Bank of Pennsylvania'
p5881
ag1118
asS'5/13/1999'
p5882
(lp5883
g4807
ag793
asS'3/30/2015'
p5884
(lp5885
S'SBM Financial Inc'
p5886
aS'Camden National Corp'
p5887
asS'5/7/1999'
p5888
(lp5889
S'Pioneer Bancorp,Reno,Nevada'
p5890
ag398
asS'3/28/1996'
p5891
(lp5892
S'Auburn Bancorp,Auburn,CA'
p5893
ag2363
asS'3/7/1989'
p5894
(lp5895
S'Florida Nat Bks of Florida Inc'
p5896
ag56
asS'12/14/2015'
p5897
(lp5898
S'Civic Bank & Trust'
p5899
aS'Franklin Financial Network Inc'
p5900
asS'3/20/2006'
p5901
(lp5902
S'Metrocorp Inc'
p5903
aS'National Bancshares Inc,IA'
p5904
asS'6/9/1997'
p5905
(lp5906
S'Peoples Bank, Catawba, NC'
p5907
aS'Carolina First Bancshares,NC'
p5908
asS'3/20/2000'
p5909
(lp5910
S'CCB Financial Corp,Durham,NC'
p5911
ag4389
asS'10/21/1991'
p5912
(lp5913
S'Summit Holding Corp'
p5914
ag209
asS'3/20/2002'
p5915
(lp5916
S'Peoples Financial Corp Inc'
p5917
ag1118
asS'4/3/2003'
p5918
(lp5919
S'First Continental Bnk,Rosemead'
p5920
ag2162
asS'4/3/2007'
p5921
(lp5922
S'Commerce Bank,Aurora,Colorado'
p5923
ag2351
asS'7/14/1997'
p5924
(lp5925
S'Farmers Bancshares Inc,KS'
p5926
ag1761
asS'7/14/1998'
p5927
(lp5928
S'Progressive Bancshares Inc'
p5929
ag975
asS'4/3/2009'
p5930
(lp5931
g5240
ag5095
asS'6/25/2007'
p5932
(lp5933
g2278
ag1339
asS'3/16/2004'
p5934
(lp5935
S'Fairbanco Hldg,Fairburn,GA'
p5936
ag1835
asS'3/16/2006'
p5937
(lp5938
S'Suncoast Bancorp Inc,FL'
p5939
ag1538
asS'3/16/2001'
p5940
(lp5941
S'FNH Corp,Herminie,PA'
p5942
aS'Promistar Financial Corp'
p5943
asS'12/16/2010'
p5944
(lp5945
S'MidCarolina Financial Corp'
p5946
ag1218
asS'2/4/1998'
p5947
(lp5948
S'KeyCorp NA-Branches(33)'
p5949
ag197
asS'6/30/2009'
p5950
(lp5951
S'Community National Corp'
p5952
aS'NB&T Financial Group Inc'
p5953
asS'11/23/2015'
p5954
(lp5955
S'Penn Liberty Finl Corp'
p5956
ag1567
asS'6/30/2004'
p5957
(lp5958
S'Allaire Community Bank,NJ'
p5959
aS'Monmouth Community Bancorp'
p5960
asS'6/30/2005'
p5961
(lp5962
S'United Natl Bk,San Marino,CA'
p5963
ag1438
asS'10/1/2015'
p5964
(lp5965
S'Security California Bancorp'
p5966
ag2966
asS'12/2/1991'
p5967
(lp5968
S'Alsip Bank & Trust,Alsip,IL'
p5969
ag3400
asS'2/1/1994'
p5970
(lp5971
S'Citizens Express Co'
p5972
ag356
asS'12/2/1993'
p5973
(lp5974
S'Security National Bk,Pottstown'
p5975
ag495
asS'12/2/1992'
p5976
(lp5977
S'Pitcairn Private Bank'
p5978
ag257
asS'12/2/1994'
p5979
(lp5980
S'Citizens Natl Bancshares,LA'
p5981
ag2197
asS'12/2/1997'
p5982
(lp5983
S'Peoples Bank of Virginia'
p5984
ag683
asS'6/28/1988'
p5985
(lp5986
S'Somerset Bancorp,Somerville,NJ'
p5987
ag2879
asS'10/19/2015'
p5988
(lp5989
S'Blueridge Bank,Frederick,MD'
p5990
aS'Revere Bank,Laurel,Maryland'
p5991
asS'4/6/1999'
p5992
(lp5993
S'Potomac Valley Bank,Petersburg'
p5994
ag999
asS'4/6/1998'
p5995
(lp5996
S'Citizens Holding Co'
p5997
ag5771
asS'11/16/1990'
p5998
(lp5999
S'First United Bancorp,IN'
p6000
ag590
asS'11/16/1993'
p6001
(lp6002
S'First Clyde Banc Corp'
p6003
ag305
asS'4/6/1993'
p6004
(lp6005
S'Missouri Bridge Bank'
p6006
ag878
asS'1/21/2003'
p6007
(lp6008
S'First Virginia Banks Inc,VA'
p6009
ag491
asS'11/14/2011'
p6010
(lp6011
S'Virginia Savings Bancorp Inc'
p6012
ag3191
asS'11/14/2014'
p6013
(lp6014
S'PNA Bank,Chicago,Illinois'
p6015
aS'Royal Financial Inc,Chicago,Il'
p6016
asS'11/7/1985'
p6017
(lp6018
S'Central Fl Bk Corp,Dade City'
p6019
ag56
asS'8/24/1989'
p6020
(lp6021
S'Signal Bancorp,Monticello,IN'
p6022
aS'Lincoln Financial Corp,IN'
p6023
asS'12/3/1997'
p6024
(lp6025
S'Bank Holding Co,Griffin,GA'
p6026
ag665
asS'2/11/2014'
p6027
(lp6028
S'First Private Holdings Inc'
p6029
ag1321
asS'1/28/1993'
p6030
(lp6031
S'Columbia National Bankshares'
p6032
ag1923
asS'12/3/1991'
p6033
(lp6034
S'BankAmerica-Certain Branches'
p6035
ag2367
asS'3/10/1987'
p6036
(lp6037
S'Elston Corp'
p6038
ag1520
asS'1/28/1999'
p6039
(lp6040
S'Mason-Dixon Bancshares,MD'
p6041
ag491
asS'1/28/1998'
p6042
(lp6043
S'Jersey Bank of Savings,NJ'
p6044
aS'Interchange Financial Svcs,NJ'
p6045
asS'12/3/1998'
p6046
(lp6047
S'FSB Inc,Covington,TN'
p6048
ag293
asS'12/6/1995'
p6049
(lp6050
S'Community National Bk,Franklin'
p6051
ag4858
asS'12/6/1991'
p6052
(lp6053
S'First Peoria Corp'
p6054
ag2351
asS'12/6/1993'
p6055
(lp6056
S'First Natl,Natl Bank,KY'
p6057
ag844
asS'2/1/1999'
p6058
(lp6059
S'Broad Natl Bancorp,Newark,NJ'
p6060
aS'Independence Cmnty Bk Corp,NY'
p6061
asS'12/1/1994'
p6062
(lp6063
S'Progressive Bancorp,Terrebonne'
p6064
ag336
asS'2/1/2001'
p6065
(lp6066
S'Pennsylvania Capital Bank'
p6067
aS'Three Rivers Bancorp Inc,PA'
p6068
asS'9/20/1985'
p6069
(lp6070
S'Southern Bancorp,Greenville,SC'
p6071
ag56
asS'2/1/2006'
p6072
(lp6073
S'Mid-Valley Bank,Woodburn,OR'
p6074
ag1058
asS'7/29/1994'
p6075
(lp6076
S'Med Center Bank'
p6077
ag473
asS'9/20/1989'
p6078
(lp6079
S'Plaza Commerce Bancorp'
p6080
ag139
asS'1/11/2007'
p6081
(lp6082
S'Chinese American Bank, NY,NY'
p6083
ag2162
asS'1/11/2005'
p6084
(lp6085
S'SVB Financial Services Inc,NJ'
p6086
ag217
asS'1/11/2002'
p6087
(lp6088
S'Pulaski Bancorp Inc,NJ'
p6089
ag5341
asS'7/23/2013'
p6090
(lp6091
S'United Commerce Bancorp'
p6092
ag1088
asS'12/7/1992'
p6093
(lp6094
S'First Nat Bk,TX-Tyler Branch'
p6095
aS'First Nat Bank,Marshall,TX'
p6096
asS'12/22/1992'
p6097
(lp6098
S'Sand Springs Bancshares Inc'
p6099
ag739
asS'12/22/1993'
p6100
(lp6101
S'Plaza Natl Bk,Bartlesville,OK'
p6102
ag739
asS'7/8/1994'
p6103
(lp6104
S'Union Bank & Trust Montgomery'
p6105
ag237
asS'12/22/1995'
p6106
(lp6107
S'Commercial Bancorp of Georgia'
p6108
ag80
asS'7/8/1996'
p6109
(lp6110
S'Peoples Bancorp of Washington'
p6111
ag1088
asS'7/8/1999'
p6112
(lp6113
S'LCB Corp,Fayetteville,TN'
p6114
ag237
asS'12/7/1999'
p6115
(lp6116
S'Pioneer American Holding Corp'
p6117
ag1054
asS'8/11/1998'
p6118
(lp6119
S'Signal Corp,Wooster,OH'
p6120
ag892
asS'2/15/2000'
p6121
(lp6122
S'Panasia Bk,Fort Lee,NJ'
p6123
ag1339
asS'5/23/2014'
p6124
(lp6125
S'Aslin Group Inc'
p6126
aS'First Bus Finl Svcs Inc'
p6127
asS'2/15/2006'
p6128
(lp6129
S'Southwest Cmnty Bancorp,CA'
p6130
ag5605
asS'1/25/2005'
p6131
(lp6132
S'Commun Bank of Virginia,VA'
p6133
ag1148
asS'2/15/2008'
p6134
(lp6135
S'Iron & Glass Bancorp Inc'
p6136
ag111
asS'1/25/2007'
p6137
(lp6138
S'Civitas BankGroup Inc'
p6139
ag3772
asS'1/25/2006'
p6140
(lp6141
S'Western Washington Bancorp,WA'
p6142
aS'Heritage Financial Corp'
p6143
asS'5/10/2005'
p6144
(lp6145
S'United Financial Inc,NC'
p6146
ag5771
asS'5/10/2004'
p6147
(lp6148
S'Northview Financial Corp'
p6149
ag645
asS'2/2/2000'
p6150
(lp6151
S'First Commerce Bancshares Inc'
p6152
ag1357
asS'2/2/2001'
p6153
(lp6154
S'Community Tr Finl Svcs Corp'
p6155
ag1499
asS'2/2/2007'
p6156
(lp6157
S'Bank of Kansas,Hutchinson,KS'
p6158
aS'Southwest Bancorp Inc,OK'
p6159
asS'6/11/1986'
p6160
(lp6161
S'Guaranty Bank and Trust Co,'
p6162
aS'Riggs Natl Corp,Washington,DC'
p6163
asS'6/21/1999'
p6164
(lp6165
S'South Texas Bancshares,TX'
p6166
ag36
asS'10/13/2008'
p6167
(lp6168
S'First Wisconsin Bank & Tr Co'
p6169
ag5904
asS'6/7/2004'
p6170
(lp6171
S'Bank of Astoria,OR'
p6172
ag1923
asS'6/7/2007'
p6173
(lp6174
S'Yardville National Bancorp,NJ'
p6175
ag453
asS'6/21/1995'
p6176
(lp6177
S'Security Bancorp Inc,Canton,GA'
p6178
ag3876
asS'10/12/1994'
p6179
(lp6180
S'First Robinson Bancorp'
p6181
ag233
asS'6/21/1996'
p6182
(lp6183
S'Westport Bancorp,Westport,CT'
p6184
ag1395
asS'10/23/2013'
p6185
(lp6186
g2666
ag6143
asS'2/7/1995'
p6187
(lp6188
S'Tanglewood Bancshares'
p6189
ag1966
asS'8/7/2014'
p6190
(lp6191
S'Siuslaw Financial Group Inc'
p6192
ag2656
asS'11/2/1993'
p6193
(lp6194
S'Orange County Bancorp,Paoli,IN'
p6195
ag178
asS'8/13/2001'
p6196
(lp6197
S'First Bancshares of Texas,TX'
p6198
ag237
asS'3/25/2015'
p6199
(lp6200
S'Grand Bankshares Inc'
p6201
ag2806
asS'4/9/2007'
p6202
(lp6203
S'First Commerce Cmnty Bankshare'
p6204
ag1481
asS'1/13/1999'
p6205
(lp6206
S'Clearfield Bank and Trust,PA'
p6207
aS'Penn Laurel Financial Corp'
p6208
asS'1/13/1998'
p6209
(lp6210
S'Etowah Bank,Canton,Georgia'
p6211
ag237
asS'1/13/1997'
p6212
(lp6213
S'Southeastern IN Bancorp,IN'
p6214
ag305
asS'1/13/1995'
p6215
(lp6216
S'Val Cor Bancorp'
p6217
ag4854
asS'1/13/1994'
p6218
(lp6219
S'Indiana State Bank of Terra'
p6220
ag178
asS'8/4/1998'
p6221
(lp6222
S'American Independent Bank'
p6223
aS'First Coastal Bankshares Inc'
p6224
asS'8/3/1993'
p6225
(lp6226
S'First Federal Savings,Calhoun'
p6227
ag2522
asS'8/3/1995'
p6228
(lp6229
S'Huntington National Bank,PA'
p6230
ag1531
asS'1/18/2007'
p6231
(lp6232
S'Peoples Cmnty Bancshares Inc'
p6233
aS'Superior Bancorp,Alabama'
p6234
asS'8/4/1992'
p6235
(lp6236
S'Center Banks Inc'
p6237
ag1054
asS'8/4/1995'
p6238
(lp6239
S'Hawkeye Bancorp'
p6240
ag992
asS'8/4/1994'
p6241
(lp6242
S'Bank of Waverly'
p6243
aS'Bank of Suffolk'
p6244
asS'8/4/1997'
p6245
(lp6246
S'Capital Bancorp,Florida'
p6247
ag293
asS'1/18/2002'
p6248
(lp6249
S'Western Security Bancorp'
p6250
ag1385
asS'1/12/2006'
p6251
(lp6252
S'First Citizens Bank,Tennessee'
p6253
ag491
asS'10/13/2015'
p6254
(lp6255
S'NewBridge Bancorp'
p6256
ag5308
asS'2/3/1994'
p6257
(lp6258
S'Bank of Livermore,California'
p6259
ag2588
asS'2/3/1995'
p6260
(lp6261
S'First Bank Sys-Wisconsin Br(5)'
p6262
aS'First Fed Bancshares of Eau Cl'
p6263
asS'9/1/1983'
p6264
(lp6265
S'Arltru Bancorp'
p6266
ag4686
asS'9/1/1986'
p6267
(lp6268
S'First Mississippi Natl Corp'
p6269
ag5663
asS'9/1/1987'
p6270
(lp6271
g2535
ag205
asS'9/11/1997'
p6272
(lp6273
S'NationsBbank-Oklahoma Br(10)'
p6274
ag3104
asS'9/1/1988'
p6275
(lp6276
S'First Natl Bk of Massillon,OH'
p6277
aS'First Bancorp of Ohio,Akron'
p6278
asS'12/23/1992'
p6279
(lp6280
S'First Financial Associates'
p6281
ag205
asS'9/9/2005'
p6282
(lp6283
S'Rivoli BanCorp Inc,Macon,GA'
p6284
ag1481
asS'12/23/1994'
p6285
(lp6286
S'Southern Bank Group Inc'
p6287
ag432
asS'8/18/1997'
p6288
(lp6289
S'Liberty Financial Corp'
p6290
ag550
asS'8/18/1995'
p6291
(lp6292
S'Park Natl Bank of Houston,TX'
p6293
ag733
asS'8/18/1994'
p6294
(lp6295
S'Worthen Banking,Little Rock,AR'
p6296
ag878
asS'8/18/1993'
p6297
(lp6298
S'WM Bancorp'
p6299
ag1014
asS'6/2/1999'
p6300
(lp6301
S'Banknorth Group Inc,VT'
p6302
aS'Peoples Heritage Finl Group,ME'
p6303
asS'8/18/1998'
p6304
(lp6305
S'Harbor Bancorp Inc,Grays'
p6306
ag6143
asS'3/3/1998'
p6307
(lp6308
S'Community Financial Hldg,NJ'
p6309
ag1395
asS'2/22/1989'
p6310
(lp6311
S'First Coastal Banks Inc'
p6312
ag6303
asS'2/22/1988'
p6313
(lp6314
S'First City Corp,Fort Smith,AR'
p6315
ag245
asS'3/3/1995'
p6316
(lp6317
S'First Trust Bank-Branches(14)'
p6318
ag473
asS'3/3/1997'
p6319
(lp6320
S'CB Bancorp,Michigan City,IN'
p6321
aS'Pinnacle Financial Svcs Inc,MI'
p6322
asS'1/29/2003'
p6323
(lp6324
S'Millennium Bank,Gainesville,FL'
p6325
ag96
asS'6/23/1998'
p6326
(lp6327
S'Capital Bank,Rockville,MD'
p6328
ag957
asS'6/23/1997'
p6329
(lp6330
S'Dadeland Bancshares,Miami,FL'
p6331
ag80
asS'6/23/1995'
p6332
(lp6333
S'Intercontinental Bank,Miami,FL'
p6334
ag1122
asS'6/23/1994'
p6335
(lp6336
S'Bocaq Bancorp Inc'
p6337
aS'Intercontinental Bank,Miami,FL'
p6338
asS'6/23/1993'
p6339
(lp6340
S'Inter Community Bancorp'
p6341
ag586
asS'5/27/2004'
p6342
(lp6343
S'Lamar Bancshares Inc,TX'
p6344
ag4364
asS'7/30/1985'
p6345
(lp6346
S'Franklin Bancorp'
p6347
ag538
asS'4/19/1985'
p6348
(lp6349
S'Oregon Bank(Orbanco Finl Svcs)'
p6350
ag2391
asS'9/18/2006'
p6351
(lp6352
S'Summit Bank Corp,Atlanta,GA'
p6353
ag2162
asS'9/18/2001'
p6354
(lp6355
S'Riverway Holdings Inc'
p6356
ag649
asS'9/18/2002'
p6357
(lp6358
S'Bank of Ste Genevieve,MO'
p6359
ag2024
asS'12/21/2006'
p6360
(lp6361
S'Citizens Bancorp Inc,PA'
p6362
aS'Citizens & Northern Corp'
p6363
asS'12/26/2001'
p6364
(lp6365
S'Independence Bank of Houston'
p6366
ag237
asS'4/19/1989'
p6367
(lp6368
S'First Natl Bk&Tr,El Dorado,KS'
p6369
ag412
asS'12/21/2005'
p6370
(lp6371
S'Trustcorp Finl Inc,MO'
p6372
ag947
asS'3/27/2013'
p6373
(lp6374
S'North Cascades National Bk,WA'
p6375
ag249
asS'5/13/2004'
p6376
(lp6377
g4579
ag2514
asS'4/10/2000'
p6378
(lp6379
S'Heritage Bancorp Inc'
p6380
ag237
asS'7/27/2000'
p6381
(lp6382
S'FCNB Corp,Frederick,MD'
p6383
ag491
asS'1/24/2001'
p6384
(lp6385
S'F&M National,Winchester,VA'
p6386
ag491
asS'6/29/1987'
p6387
(lp6388
g204
ag1206
asS'9/30/1994'
p6389
(lp6390
S'ENB Financial Corp'
p6391
ag957
asS'4/25/1989'
p6392
(lp6393
S'Ravenswood Financial Corp'
p6394
ag601
asS'9/30/1996'
p6395
(lp6396
S'Woodstown Natl Bk & Tr,NJ'
p6397
ag217
asS'2/28/1986'
p6398
(lp6399
S'First Ashland Corp, Kentucky'
p6400
ag690
asS'9/30/1999'
p6401
(lp6402
S'Bank of Leipsic Co Inc,Leipsic'
p6403
aS'United Bancshares Inc,Columbus'
p6404
asS'6/25/1987'
p6405
(lp6406
S'State National Corp,Evanston'
p6407
ag477
asS'10/19/1994'
p6408
(lp6409
S'Peoples Commercial Svcs Corp'
p6410
ag107
asS'10/19/1995'
p6411
(lp6412
S'Triad Bank,Greensboro,NC'
p6413
ag1170
asS'5/21/2007'
p6414
(lp6415
S'Peoples BancTrust,Selma,AL'
p6416
aS'BancTrust Financial Group Inc'
p6417
asS'9/10/2008'
p6418
(lp6419
S'American Cmnty Bancshares Inc'
p6420
ag5315
asS'8/25/1995'
p6421
(lp6422
S'Fourth Financial Corp'
p6423
ag878
asS'9/10/2004'
p6424
(lp6425
S'AdvantageBank-Branches(2)'
p6426
ag60
asS'8/25/1998'
p6427
(lp6428
S'Peoples Bancorp of Winchester'
p6429
ag2506
asS'9/24/1986'
p6430
(lp6431
S'First Community Bancshares, GA'
p6432
aS'CB&T Bancshares,Columbus,GA'
p6433
asS'9/24/1985'
p6434
(lp6435
S'Suburban Bancorp, Bethesda, MD'
p6436
ag1808
asS'8/21/1989'
p6437
(lp6438
S'Westside Bank'
p6439
aS'Alameda Bancorporation Inc'
p6440
asS'6/16/1999'
p6441
(lp6442
S'Hartland Bank NA'
p6443
ag514
asS'5/6/2014'
p6444
(lp6445
S'Community First Bancshares Inc'
p6446
ag3177
asS'5/6/2015'
p6447
(lp6448
S'Bank of the Carolinas Corp'
p6449
ag285
asS'8/21/1985'
p6450
(lp6451
S'Banknorth Group Inc'
p6452
ag5475
asS'6/15/2011'
p6453
(lp6454
S'Parkvale Financial Corp'
p6455
ag111
asS'5/13/1985'
p6456
(lp6457
S'First Hardin Natl Bank & Trust'
p6458
ag2089
asS'4/12/1991'
p6459
(lp6460
S'Albright Bancorp Inc'
p6461
ag151
asS'4/12/1999'
p6462
(lp6463
S'Statewide Financial Corp,NJ'
p6464
ag6061
asS'7/29/1999'
p6465
(lp6466
S'Merchants Bancorp,Aurora,IL'
p6467
ag918
asS'10/4/1989'
p6468
(lp6469
g5484
aS'River Forest Bancorp'
p6470
asS'11/19/1999'
p6471
(lp6472
S'Napa National Bancorp,CA'
p6473
ag1357
asS'11/10/2014'
p6474
(lp6475
S'Valley Community Bank'
p6476
ag1593
asS'6/22/2001'
p6477
(lp6478
S'BYL Bancorp,Orange,CA'
p6479
ag100
asS'7/18/2014'
p6480
(lp6481
S'Peninsula Financial Corp'
p6482
aS'Mackinac Financial Corp'
p6483
asS'3/7/1995'
p6484
(lp6485
S'First Commercial Bank'
p6486
ag209
asS'3/7/1997'
p6487
(lp6488
g6060
ag1395
asS'3/7/1991'
p6489
(lp6490
g2501
ag2502
asS'7/9/2004'
p6491
(lp6492
S'Bank of Amador,Jackson,CA'
p6493
aS'American River Bankshares'
p6494
asS'7/9/2007'
p6495
(lp6496
S'First Indiana Corp,Indiana'
p6497
ag947
asS'7/20/1995'
p6498
(lp6499
S'CoBank Financial Corp'
p6500
ag2363
asS'7/20/1998'
p6501
(lp6502
S'Pacific Capital Bancorp,CA'
p6503
ag1329
asS'7/12/2005'
p6504
(lp6505
S'Hudson United Bancorp,NJ'
p6506
aS'TD Banknorth Inc,Portland,ME'
p6507
asS'7/12/2007'
p6508
(lp6509
S'S&C Banco Inc'
p6510
ag609
asS'9/6/1989'
p6511
(lp6512
S'Scottsbluff Natl Bk & Trust,NE'
p6513
ag1299
asS'5/21/1984'
p6514
(lp6515
S'Nevada State Bk,NV'
p6516
aS'Zions Utah Bancorp,UT'
p6517
asS'5/21/1987'
p6518
(lp6519
S'Delaware Trust Co,DE'
p6520
ag1381
asS'1/21/2000'
p6521
(lp6522
S'Union National Bancorp Inc,MD'
p6523
ag1148
asS'9/25/1987'
p6524
(lp6525
S'Irving Bank Corp,New York,'
p6526
ag786
asS'1/21/2004'
p6527
(lp6528
S'CNB Florida Bancshares Inc,FL'
p6529
ag1791
asS'1/22/1993'
p6530
(lp6531
S'Desert Southwest Community'
p6532
ag1743
asS'6/28/1994'
p6533
(lp6534
S'Oblong Bancshares Inc'
p6535
ag178
asS'6/28/1995'
p6536
(lp6537
S'QuestStar Bank NA'
p6538
ag139
asS'12/2/1986'
p6539
(lp6540
S'WB Financial,Wayne,Michigan'
p6541
ag416
asS'1/14/2004'
p6542
(lp6543
S'Bank One Corp,Chicago,IL'
p6544
aS'JPMorgan Chase & Co'
p6545
asS'5/15/2015'
p6546
(lp6547
S'First Scottsdale Bank,NA'
p6548
ag1251
asS'12/2/1988'
p6549
(lp6550
S'Security Natl Bank of Manistee'
p6551
ag186
asS'5/15/2013'
p6552
(lp6553
g1599
ag2351
asS'8/24/1990'
p6554
(lp6555
S'Homestate Bancorp Inc'
p6556
ag2615
asS'9/26/1989'
p6557
(lp6558
g1083
ag1808
asS'8/24/1995'
p6559
(lp6560
S'Financial Institutions'
p6561
aS'Suburban Bancshares'
p6562
asS'11/14/2001'
p6563
(lp6564
g2742
ag1711
asS'11/14/2005'
p6565
(lp6566
S'Minotola National Bank'
p6567
ag4
asS'11/14/2007'
p6568
(lp6569
g4243
aS'Oritani Financial Corp'
p6570
asS'11/14/2006'
p6571
(lp6572
S'Valrico Bancorp Inc'
p6573
ag2448
asS'7/11/1995'
p6574
(lp6575
S'Landmark Bancorp'
p6576
ag2440
asS'7/11/1994'
p6577
(lp6578
S'Old White Bankshares Inc,WV'
p6579
aS'First Citizens Bancshares,TN'
p6580
asS'1/28/1987'
p6581
(lp6582
S'Second Natl Bank,Masontown,PA'
p6583
aS'Union National Corp,PA'
p6584
asS'3/10/1993'
p6585
(lp6586
S'Mt Vernon Bancorp Inc'
p6587
ag992
asS'1/28/1988'
p6588
(lp6589
S'United Bank of Arizona'
p6590
ag48
asS'7/10/2003'
p6591
(lp6592
S'First State Bancorp,CA'
p6593
ag3433
asS'7/10/2002'
p6594
(lp6595
S'Northern State Bank,Towanda,PA'
p6596
aS'Legacy Bank,Harrisburg,PA'
p6597
asS'4/28/1989'
p6598
(lp6599
S'Northern Highlands State Bank'
p6600
ag4524
asS'7/10/2000'
p6601
(lp6602
S'Premier Natl Bancorp Inc, NY'
p6603
ag2660
asS'4/28/1987'
p6604
(lp6605
S'Affiliated Banc Group Inc'
p6606
aS'Manufacturers National Corp'
p6607
asS'8/2/2006'
p6608
(lp6609
S'Piedmont Bancshares Inc,Atlant'
p6610
aS'PrivateBancorp Inc'
p6611
asS'12/6/1985'
p6612
(lp6613
S'Farmers & Merchants Bk,Indiana'
p6614
ag6023
asS'8/2/2001'
p6615
(lp6616
g6583
aS'Parkvale Financial Corp'
p6617
asS'11/21/1997'
p6618
(lp6619
S'Texas Natl Bank of Baytown,TX'
p6620
aS'Bay Bancshares,Laporte,Texas'
p6621
asS'11/21/1995'
p6622
(lp6623
S'Moxham Bank Corp'
p6624
ag1531
asS'8/29/1999'
p6625
(lp6626
S'Saratoga Bancorp,Saratoga,CA'
p6627
aS'SJNB Financial Corp,CA'
p6628
asS'11/21/1991'
p6629
(lp6630
S'Main Line Bancshares Inc'
p6631
ag1014
asS'8/29/1997'
p6632
(lp6633
S'Barnett Banks,Jacksonville,FL'
p6634
ag1122
asS'8/29/1996'
p6635
(lp6636
S'Big Stone Gap Bank & Trust,VA'
p6637
ag5174
asS'8/29/1994'
p6638
(lp6639
S'State Bank of Fayetteville'
p6640
ag6580
asS'8/29/1991'
p6641
(lp6642
S'Wellsburg Banking and Trust Co'
p6643
aS'American Bancorporation Inc,WV'
p6644
asS'2/14/1997'
p6645
(lp6646
S'New Iberia Bancorp,Louisiana'
p6647
ag237
asS'3/9/1998'
p6648
(lp6649
S'Community First Financial,KY'
p6650
aS'National City Bancorp'
p6651
asS'11/6/1987'
p6652
(lp6653
S'First Fulton Bancshares, Ga'
p6654
ag1003
asS'11/6/1986'
p6655
(lp6656
S'Chester Bank, Chester, CT'
p6657
ag4686
asS'11/6/1985'
p6658
(lp6659
S'First Indiana Bancorp, Elkhart'
p6660
ag2313
asS'2/14/1992'
p6661
(lp6662
S'First Peoples Financial Corp'
p6663
ag586
asS'8/10/2004'
p6664
(lp6665
S'Custar State Bank,Custar,Ohio'
p6666
aS'Croghan Bancshares Inc'
p6667
asS'11/23/2005'
p6668
(lp6669
g1760
ag979
asS'1/5/1988'
p6670
(lp6671
S'M&M Financial Corp'
p6672
aS'Southern Bankshares,Beckley,WV'
p6673
asS'3/9/1994'
p6674
(lp6675
S'Citizens Bank & Trust,Evans,GA'
p6676
ag1733
asS'12/22/1987'
p6677
(lp6678
S'Southold Savings Bank'
p6679
ag487
asS'10/24/1995'
p6680
(lp6681
S'First Gwinnett Bankshares Inc'
p6682
ag237
asS'10/24/1997'
p6683
(lp6684
S'Firstshares of Texas Inc,TX'
p6685
ag336
asS'7/8/1985'
p6686
(lp6687
S'Broad Street Natl Bk,Trenton'
p6688
aS'First Jersey National Corp'
p6689
asS'5/17/2011'
p6690
(lp6691
S'Fullerton Federal Savings Assn'
p6692
aS'Fairmount Bancorp Inc'
p6693
asS'12/22/1988'
p6694
(lp6695
S'Southwest Bancorp Inc,OK'
p6696
ag309
asS'12/8/1993'
p6697
(lp6698
S'LSB Bancshares Inc of SC'
p6699
ag5878
asS'5/10/2010'
p6700
(lp6701
S'Atlantic Bancgroup Inc'
p6702
aS'Jacksonville Bancorp Inc,FL'
p6703
asS'1/25/2012'
p6704
(lp6705
S'Indiana Community Bancorp'
p6706
ag178
asS'7/5/2000'
p6707
(lp6708
S'Webster Bancorp Inc,Clay,KY'
p6709
ag4317
asS'7/5/2001'
p6710
(lp6711
S'Mid Town Bank & Trust Co'
p6712
aS'MAF Bancorp,Clarendon Hills,IL'
p6713
asS'6/11/1997'
p6714
(lp6715
S'Professional Bank,Glendale,CO'
p6716
ag1018
asS'12/13/2001'
p6717
(lp6718
S'Tejas Bancshares Inc,Amarillo,'
p6719
ag1357
asS'5/3/1982'
p6720
(lp6721
S'First United Bancorp Inc'
p6722
aS'InterFirst Corp,Dallas,Texas'
p6723
asS'6/21/1989'
p6724
(lp6725
S'Security Bancshares Inc'
p6726
ag293
asS'4/18/1996'
p6727
(lp6728
S'FirstSouth Bank,Burlington,NC'
p6729
ag4427
asS'4/18/1995'
p6730
(lp6731
S'Western Bank,Gallup,New Mexico'
p6732
aS'First Place Financial Corp'
p6733
asS'5/3/1987'
p6734
(lp6735
g6520
ag420
asS'6/13/2001'
p6736
(lp6737
S'Virginia Commonwealth Finl'
p6738
aS'Virginia Financial Corp,Staunt'
p6739
asS'5/31/1999'
p6740
(lp6741
S'First American Corp,Tennessee'
p6742
ag2522
asS'2/28/1997'
p6743
(lp6744
S'AmFirst Bancorp Inc,Everett,WA'
p6745
ag182
asS'5/31/1996'
p6746
(lp6747
S'First Public Svgs Bk FSB,CA'
p6748
aS'Cathay Bancorp,Los Angeles,CA'
p6749
asS'5/31/1995'
p6750
(lp6751
S'Community Bank of the Islands'
p6752
ag1003
asS'5/31/1994'
p6753
(lp6754
S'Security First Bank'
p6755
aS'Jefferson Bank,Philadelphia,PA'
p6756
asS'8/13/2013'
p6757
(lp6758
S'WNB Bancshares Inc'
p6759
ag733
asS'10/22/2012'
p6760
(lp6761
S'Pacific International Bancorp'
p6762
ag1361
asS'10/22/2013'
p6763
(lp6764
S'Alaska Pacific Bancshares Inc'
p6765
ag5688
asS'10/22/2014'
p6766
(lp6767
S'Independence Bk,Newport Beach'
p6768
ag2966
asS'4/16/1998'
p6769
(lp6770
S'First Capitol Bank,York,PA'
p6771
ag4
asS'10/6/1994'
p6772
(lp6773
g5538
ag1343
asS'10/27/2010'
p6774
(lp6775
S'First Ipswich Bancorp,MA'
p6776
ag1365
asS'9/6/2001'
p6777
(lp6778
S'Farmers National Bancshares'
p6779
ag96
asS'10/6/1999'
p6780
(lp6781
S'State Bank Alleghenies,VA'
p6782
ag683
asS'4/16/1996'
p6783
(lp6784
S'First National Finl Corp,GA'
p6785
ag2552
asS'8/28/2006'
p6786
(lp6787
S'Landmark Financial Corp,'
p6788
aS'First Internet Bancorp'
p6789
asS'8/28/2002'
p6790
(lp6791
S'CNBC Bancorp,Worthington,Ohio'
p6792
ag590
asS'8/28/2001'
p6793
(lp6794
S'First Western Bank,NC'
p6795
ag532
asS'11/5/2001'
p6796
(lp6797
S'Gulf Coast Com Bancshares'
p6798
ag4648
asS'2/17/2006'
p6799
(lp6800
S'Mansfield Bancorp Inc,IL'
p6801
aS'First Mid-Illinois Bancshares'
p6802
asS'8/2/2004'
p6803
(lp6804
S'First National Bankshares FL'
p6805
ag844
asS'2/3/1986'
p6806
(lp6807
S'First Bank of Colonia,NJ'
p6808
aS'Commercial Bancshares Inc,NJ'
p6809
asS'4/21/2014'
p6810
(lp6811
S'North Akron Savings Bk,Akron,O'
p6812
ag60
asS'9/1/1994'
p6813
(lp6814
S'Omnibancorp,Denver,Colorado'
p6815
ag1856
asS'9/1/1997'
p6816
(lp6817
S'Harbor Bancorp,Long Beach,CA'
p6818
ag92
asS'9/11/1984'
p6819
(lp6820
S'Independence Bank Group Inc'
p6821
ag4303
asS'9/1/1999'
p6822
(lp6823
g5062
ag1757
asS'9/1/1998'
p6824
(lp6825
S'Eagle Holding Co'
p6826
ag398
asS'8/18/1988'
p6827
(lp6828
S'Heritage Group Inc-Two Banks'
p6829
aS'FNW Bancorp Inc'
p6830
asS'9/9/2010'
p6831
(lp6832
S'Sam Houston Financial Corp'
p6833
ag12
asS'9/9/2013'
p6834
(lp6835
S'United Financial Banking Cos'
p6836
ag3572
asS'3/22/2011'
p6837
(lp6838
S'Embarcadero Bk,San Diego,CA'
p6839
aS'Coronado First Bk,Coronado,CA'
p6840
asS'3/22/2013'
p6841
(lp6842
S'Enterprise Bancorp Inc'
p6843
ag1210
asS'2/6/2006'
p6844
(lp6845
S'SterlingSouth Bank & Trust Co'
p6846
ag1506
asS'12/28/2012'
p6847
(lp6848
S'Roebling Financial Corp Inc'
p6849
aS'TF Financial Corp,Newtown,PA'
p6850
asS'7/6/2000'
p6851
(lp6852
S'Atlantic Financial,Corp,VA'
p6853
ag683
asS'8/22/1996'
p6854
(lp6855
S'Fidelity Finl Bankshares,VA'
p6856
ag1136
asS'8/22/1997'
p6857
(lp6858
S'First National Summit,CO'
p6859
ag761
asS'8/22/1994'
p6860
(lp6861
S'Independent Bancorp of Arizona'
p6862
ag1166
asS'8/22/1990'
p6863
(lp6864
S'Twin City Bank,TC Bankshares'
p6865
ag506
asS'8/22/1991'
p6866
(lp6867
S'Foothill Independent Bancorp'
p6868
ag1385
asS'2/22/1999'
p6869
(lp6870
S'Republic Banking Corp,Miami,FL'
p6871
ag293
asS'4/19/1999'
p6872
(lp6873
S'F&M Bancorp,Kaukauna,WI'
p6874
ag1287
asS'3/2/1994'
p6875
(lp6876
S'Pioneer Financial,Malden,MA'
p6877
ag1280
asS'4/19/1991'
p6878
(lp6879
S'Citadel Bk of Independence,MO'
p6880
ag412
asS'4/19/1993'
p6881
(lp6882
g3590
ag205
asS'9/18/2015'
p6883
(lp6884
S'Pan Pacific Bank,Fremont,CA'
p6885
aS'California Bank of Commerce'
p6886
asS'5/23/2007'
p6887
(lp6888
g2114
ag739
asS'9/18/2013'
p6889
(lp6890
S'MetroCorp Bancshares Inc'
p6891
ag1438
asS'12/21/2011'
p6892
(lp6893
S'KeySource Financial Inc,NC'
p6894
ag1506
asS'7/7/2005'
p6895
(lp6896
S'Prestonwood Bancshares Inc,TX'
p6897
ag1582
asS'10/14/1997'
p6898
(lp6899
S'Texstar National Bk,Texas'
p6900
aS'Surety Capital Corp'
p6901
asS'11/7/1997'
p6902
(lp6903
S'Bank of America,CA-Branches(4)'
p6904
aS'Six Rivers National Bank,CA'
p6905
asS'11/7/1996'
p6906
(lp6907
S'SJS Bancorp Inc,St Joseph,MI'
p6908
aS'Shoreline Financial Corp,MI'
p6909
asS'12/22/2004'
p6910
(lp6911
S'Belmont Bancorp,Bridgeport,OH'
p6912
ag281
asS'11/13/1985'
p6913
(lp6914
S'Capitol Bancorporation'
p6915
aS'Citizens Financial Group,RI'
p6916
asS'11/13/1989'
p6917
(lp6918
S'First Bank of Greater Pittston'
p6919
ag971
asS'1/3/1989'
p6920
(lp6921
S'Western Independent Bancshares'
p6922
ag2367
asS'11/1/1990'
p6923
(lp6924
S'Barneveld State Bank'
p6925
ag1206
asS'4/14/1998'
p6926
(lp6927
S'ComSouth Bankshares Inc'
p6928
ag2483
asS'4/14/1997'
p6929
(lp6930
S'Peoples Bancshares,Kansas'
p6931
ag1761
asS'4/14/1992'
p6932
(lp6933
S'Valley National Corp,Phoenix'
p6934
ag205
asS'8/25/1986'
p6935
(lp6936
S'Trenton Bank & Tr,Trenton,MI'
p6937
ag2539
asS'9/10/2014'
p6938
(lp6939
S'Colonial Finl Svcs Inc'
p6940
aS'Cape Bancorp Inc'
p6941
asS'11/25/1991'
p6942
(lp6943
S'First Petersburg Bancshares'
p6944
ag416
asS'11/25/1996'
p6945
(lp6946
S'Blue Ridge Bank,Sparta,NC'
p6947
aS'FCFT Inc,Princeton,WV'
p6948
asS'11/25/1997'
p6949
(lp6950
S'Towne Bancorp Inc,OH'
p6951
ag1114
asS'11/3/1999'
p6952
(lp6953
S'Michigan Financial Corp'
p6954
ag1357
asS'11/15/2006'
p6955
(lp6956
S'Emerald Bank,Dublin,Ohio'
p6957
aS'Middlefield Banc Corp,Ohio'
p6958
asS'11/3/1993'
p6959
(lp6960
S'Liberty National Bancorp'
p6961
ag205
asS'9/24/2002'
p6962
(lp6963
S'FirstService Bank,PA'
p6964
ag1339
asS'5/6/2004'
p6965
(lp6966
S'Slippery Rock Finl Corp,PA'
p6967
ag111
asS'11/3/1997'
p6968
(lp6969
S'Shelby Financial Corp,Ohio'
p6970
ag1291
asS'11/3/1994'
p6971
(lp6972
S'HNB Financial Group Inc'
p6973
ag2024
asS'4/24/2003'
p6974
(lp6975
S'Reedburg Bancorporation Inc'
p6976
ag826
asS'2/8/2007'
p6977
(lp6978
S'HNB Financial Services Inc'
p6979
ag3136
asS'1/22/2013'
p6980
(lp6981
S'First Lansing Bancorp Inc'
p6982
ag859
asS'1/4/1990'
p6983
(lp6984
g1184
ag2615
asS'11/17/2003'
p6985
(lp6986
S'Alliance Bank of Baton Rouge'
p6987
ag1321
asS'1/4/1996'
p6988
(lp6989
S'Central Bankshares,Cordele,GA'
p6990
ag2552
asS'1/4/1999'
p6991
(lp6992
S'Hebron Bancorp Inc,KY'
p6993
ag305
asS'6/22/2015'
p6994
(lp6995
S'First Mountain Bank'
p6996
aS'PBB Bancorp'
p6997
asS'12/21/2004'
p6998
(lp6999
S'Valley Comrce Bancorp Ltd,AZ'
p7000
ag739
asS'3/31/1993'
p7001
(lp7002
S'Community Bank,Carrollton,GA'
p7003
ag1673
asS'5/23/2002'
p7004
(lp7005
S'First Cmnty Ind BK,Denver,CO'
p7006
ag1492
asS'1/22/2014'
p7007
(lp7008
S'Central Community,Temple,Texas'
p7009
ag4084
asS'5/20/1991'
p7010
(lp7011
g2669
ag1202
asS'8/5/1993'
p7012
(lp7013
S'Mountaineer Bankshares of WV'
p7014
aS'One Valley Bancorp of WV,WV'
p7015
asS'5/20/1993'
p7016
(lp7017
S'First National Bank of Vermont'
p7018
ag1999
asS'8/5/1991'
p7019
(lp7020
S'Kaw Valley Bancshares Inc'
p7021
aS'MidAmerican Corp'
p7022
asS'8/5/1996'
p7023
(lp7024
S'Metroplex Bancshares,Dallas,TX'
p7025
ag1966
asS'8/5/1997'
p7026
(lp7027
S'Covenant Bancorp,New Jersey'
p7028
ag56
asS'5/20/1998'
p7029
(lp7030
S'First State Bancorp,Pittsburg'
p7031
ag1761
asS'8/5/1998'
p7032
(lp7033
S'First National Bank of Tampa'
p7034
aS'Florida Banks Inc,FL'
p7035
asS'8/5/1999'
p7036
(lp7037
S'Haywood Bancshares Inc'
p7038
ag811
asS'4/24/1998'
p7039
(lp7040
S'Palomar Savings & Loan,CA'
p7041
aS'Community West Bancshares'
p7042
asS'6/29/2015'
p7043
(lp7044
S'Ameriana Bancorp'
p7045
ag590
asS'4/24/1995'
p7046
(lp7047
S'First National Bank,Denver,CO'
p7048
ag1018
asS'4/24/1996'
p7049
(lp7050
S'Liberty Holding,Pensacola,FL'
p7051
ag461
asS'4/24/1990'
p7052
(lp7053
S'Spectrum Financial Corp'
p7054
ag2861
asS'11/10/2008'
p7055
(lp7056
S'Republic First Bancorp Inc'
p7057
aS'Pennsylvania Commerce Bancorp'
p7058
asS'9/14/2006'
p7059
(lp7060
S'Vision Bancshares Inc'
p7061
ag277
asS'2/28/2007'
p7062
(lp7063
S'Monticello Bancshares Inc'
p7064
aS'CapitalSouth Bancorp'
p7065
asS'4/15/2005'
p7066
(lp7067
S'Rantoul First Bk,Rantoul,IL'
p7068
aS'First BancTrust Corp,Paris,IL'
p7069
asS'3/12/1999'
p7070
(lp7071
S'First Waukegan Corp,Illinois'
p7072
ag2713
asS'9/25/1996'
p7073
(lp7074
S'Sun Capital Bancorp,Utah'
p7075
ag2367
asS'9/25/1997'
p7076
(lp7077
S'Victory Bancshares,Memphis,TN'
p7078
ag2197
asS'3/12/1996'
p7079
(lp7080
S'Inland Empire Bk,Hermiston,OR'
p7081
ag1114
asS'3/12/1997'
p7082
(lp7083
S'Lafayette Bancshares Inc,MO'
p7084
aS'Lexington B&L Finl Corp,MO'
p7085
asS'5/21/1998'
p7086
(lp7087
S'Mid Am Inc,Bowling Green,Ohio'
p7088
ag707
asS'9/25/1991'
p7089
(lp7090
S'Florida Westcoast Banks Inc'
p7091
ag72
asS'7/15/2013'
p7092
(lp7093
S'Taylor Capital Group Inc'
p7094
ag3202
asS'1/22/1985'
p7095
(lp7096
S'First Ruskin Bk, Hillsborough'
p7097
aS'Barnett Banks FL Inc,Florida'
p7098
asS'7/15/2015'
p7099
(lp7100
S'Bank of Santa Barbara,CA'
p7101
aS'Amer Riviera Bk,Santa Barbara'
p7102
asS'5/24/1995'
p7103
(lp7104
S'F&M Bancorp,Rochester,IN'
p7105
ag305
asS'3/1/2001'
p7106
(lp7107
S'Lone Star Bancorp,Houston,TX'
p7108
ag1582
asS'5/24/1993'
p7109
(lp7110
S'New River Bank'
p7111
ag1022
asS'12/19/1991'
p7112
(lp7113
S'Jefferson Bancorp,Peoria,Il'
p7114
ag205
asS'12/19/1996'
p7115
(lp7116
S'California Coml Bankshares,CA'
p7117
aS'Monarch Bancorp,California'
p7118
asS'12/19/1997'
p7119
(lp7120
S'NCF Financial Corp'
p7121
aS'Community Bank Shares of IN'
p7122
asS'12/19/1995'
p7123
(lp7124
S'Peoples State Bank,Topeka,KS'
p7125
ag992
asS'11/27/1995'
p7126
(lp7127
S'CFB Bancorp Inc'
p7128
ag514
asS'5/14/2007'
p7129
(lp7130
S'Synergy Financial Group Inc'
p7131
ag4054
asS'5/14/2001'
p7132
(lp7133
g4835
ag72
asS'7/28/1994'
p7134
(lp7135
S'FirstBank of Texarkana,TX'
p7136
ag245
asS'5/14/2003'
p7137
(lp7138
S'MountainBank Financial Corp'
p7139
ag1791
asS'5/14/2002'
p7140
(lp7141
S'Marathon Bancorp'
p7142
ag797
asS'8/17/1989'
p7143
(lp7144
g1998
aS'Arrow Bank Corp'
p7145
asS'7/26/2005'
p7146
(lp7147
S'Columbia Bancorp Inc'
p7148
ag217
asS'7/11/1986'
p7149
(lp7150
S'BancTEXAS Grp-4 Houston Banks'
p7151
aS'United Bankers Inc,Waco,Texas'
p7152
asS'3/21/2002'
p7153
(lp7154
S'Gulf West Banks Inc'
p7155
ag1791
asS'3/21/2000'
p7156
(lp7157
S'Bank Petaluma California'
p7158
ag1707
asS'3/21/2006'
p7159
(lp7160
S'Seasons Bancshares Inc,GA'
p7161
ag1538
asS'3/21/2005'
p7162
(lp7163
S'State Finl Svcs Corp,WI'
p7164
ag1885
asS'5/25/1993'
p7165
(lp7166
S'Cal Rep Bancorp Inc'
p7167
ag473
asS'5/25/1994'
p7168
(lp7169
S'Harrisburg Bancshares Inc,IL'
p7170
ag1768
asS'5/25/1998'
p7171
(lp7172
S'Prime Bank of Central Florida'
p7173
ag80
asS'4/28/1993'
p7174
(lp7175
S'Blue Springs Bank'
p7176
aS'Central Mortgage Bancshares'
p7177
asS'4/28/1997'
p7178
(lp7179
S'Pinemont Bank,Houston,TX'
p7180
ag1801
asS'4/28/1999'
p7181
(lp7182
S'Regency Bancorp,Fresno,CA'
p7183
ag398
asS'12/29/1986'
p7184
(lp7185
S'Seattle Trust & Savings Bank'
p7186
ag2063
asS'8/2/2012'
p7187
(lp7188
S'First Shares Inc'
p7189
ag1251
asS'1/5/1999'
p7190
(lp7191
S'First Carolina Fed Svgs,NC'
p7192
aS'First National Bank,Shelby,NC'
p7193
asS'1/5/1998'
p7194
(lp7195
S'Sunbelt Natl Bk of Houston,TX'
p7196
aS'Prime Bancshares Inc,Texas'
p7197
asS'10/21/1987'
p7198
(lp7199
S'Merchants & Planters Corp'
p7200
ag20
asS'8/29/1985'
p7201
(lp7202
S'IVB Financial Corp'
p7203
ag578
asS'12/20/2013'
p7204
(lp7205
S'Insight Bank,Worthington,OH'
p7206
ag305
asS'8/29/1988'
p7207
(lp7208
S'ANB Bancshares,Brunswick,GA'
p7209
ag1003
asS'7/21/1987'
p7210
(lp7211
S'Security Bank of Nevada,Reno'
p7212
aS'Valley Capital Corp,Las Vegas'
p7213
asS'9/3/2003'
p7214
(lp7215
S'First & Ocean National Bank,MA'
p7216
ag896
asS'11/6/1995'
p7217
(lp7218
S'Valley Financial Services Inc'
p7219
aS'Fort Wayne Natl Corp,Indiana'
p7220
asS'10/24/1986'
p7221
(lp7222
S'Valley Utah Bancorp,Salt Lake'
p7223
aS'Valley National Corp,Phoenix'
p7224
asS'5/17/2000'
p7225
(lp7226
S'Keystone Finl,Harrisburg,PA'
p7227
ag2660
asS'5/17/2002'
p7228
(lp7229
g5586
ag943
asS'5/17/2006'
p7230
(lp7231
S'NNB Holdings Inc'
p7232
aS'The Bank Holdings'
p7233
asS'5/17/2007'
p7234
(lp7235
S'Fort Worth Bancshares Inc,TX'
p7236
aS'Southside Bancshares,Tyler,TX'
p7237
asS'6/4/2014'
p7238
(lp7239
S'TF Financial Corp,Newtown,PA'
p7240
ag1339
asS'2/16/2004'
p7241
(lp7242
S'GreenPoint Financial Corp,NY'
p7243
ag487
asS'8/16/2001'
p7244
(lp7245
S'MCB Financial Corp,California'
p7246
aS'Business Bancorp,California'
p7247
asS'8/16/2007'
p7248
(lp7249
S'First Charter Corp,Charlotte'
p7250
ag844
asS'5/9/1986'
p7251
(lp7252
S'Mount Hood Sec Bank,Oregon'
p7253
ag1229
asS'5/9/1985'
p7254
(lp7255
S'Security Financial Services Co'
p7256
ag5380
asS'1/8/1990'
p7257
(lp7258
g4148
ag420
asS'5/3/1993'
p7259
(lp7260
S'Continental Bancorp'
p7261
ag1743
asS'4/18/1986'
p7262
(lp7263
S'Mutual Banc Corp'
p7264
aS'First Kentucky National Corp'
p7265
asS'5/3/1996'
p7266
(lp7267
S'Hanover Bank,Mechanicsville,VA'
p7268
ag4987
asS'5/3/1995'
p7269
(lp7270
S'Metrobank NA'
p7271
ag139
asS'1/10/2000'
p7272
(lp7273
S'Anchor Financial Corp'
p7274
ag1458
asS'5/3/1999'
p7275
(lp7276
S'Bay Commercial Services,CA'
p7277
ag1707
asS'12/18/2002'
p7278
(lp7279
S'First Commerce Corp,NC'
p7280
ag5210
asS'12/18/2003'
p7281
(lp7282
S'Peoples First Inc,Oxford,PA'
p7283
ag1339
asS'12/18/2000'
p7284
(lp7285
S'Citizens Community Bancorp Inc'
p7286
ag352
asS'3/3/2007'
p7287
(lp7288
S'Charter Bank,Bellevue,WA'
p7289
ag3433
asS'12/16/1988'
p7290
(lp7291
S'Community Finl,Harbor Beach,MI'
p7292
ag1291
asS'12/16/1985'
p7293
(lp7294
S'Union Bancorp, Grand Rapids,MI'
p7295
ag477
asS'12/16/1987'
p7296
(lp7297
S'Commercial National Bank,Ohio'
p7298
ag844
asS'11/13/2001'
p7299
(lp7300
S'First Finan Corp,Providence,RI'
p7301
ag4491
asS'1/17/2001'
p7302
(lp7303
g6416
ag4648
asS'3/28/1994'
p7304
(lp7305
S'Fishkill National Corp'
p7306
aS'Community Bancorp Inc NY'
p7307
asS'5/25/2001'
p7308
(lp7309
S'Charter Pacific Bank,Agoura,CA'
p7310
ag100
asS'9/6/2006'
p7311
(lp7312
S'BUCS Financial Corp'
p7313
ag3444
asS'5/12/1995'
p7314
(lp7315
S'El Capitan Bancshares Inc'
p7316
ag2363
asS'8/15/2002'
p7317
(lp7318
g3527
ag36
asS'8/15/2007'
p7319
(lp7320
S'MidAmerica Bancshares,TN'
p7321
ag510
asS'8/15/2006'
p7322
(lp7323
S'Islands Bancorp,Beaufort,SC'
p7324
ag1080
asS'10/22/2003'
p7325
(lp7326
S'Indian River Banking Co,FL'
p7327
ag96
asS'10/22/2007'
p7328
(lp7329
S'Stockmans Finl Group,CA'
p7330
ag4260
asS'10/6/1987'
p7331
(lp7332
S'First National Bk of Destin,FL'
p7333
ag2522
asS'4/27/1992'
p7334
(lp7335
S"People's Bank of VA Beach"
p7336
ag2595
asS'9/7/1999'
p7337
(lp7338
S'Patapsco Valley Bancshares Inc'
p7339
ag2371
asS'10/25/1989'
p7340
(lp7341
S'Valley Bank,Mount Vernon,WA'
p7342
ag627
asS'10/14/1998'
p7343
(lp7344
S'Mayflower Co-Operative Bank'
p7345
aS'First Finan Corp,Providence,RI'
p7346
asS'5/2/1995'
p7347
(lp7348
S'HNB Corp'
p7349
ag289
asS'10/25/1984'
p7350
(lp7351
S'Alaska Pacific Bancorp,AK'
p7352
ag4184
asS'6/1/1992'
p7353
(lp7354
g6253
aS'Mid-South Bancorp Inc'
p7355
asS'6/1/1994'
p7356
(lp7357
g4910
ag336
asS'6/1/1996'
p7358
(lp7359
S'SBT Bancshares Inc,Selmer,TN'
p7360
ag293
asS'6/1/1998'
p7361
(lp7362
S'United Bancorp,Roseburg,OR'
p7363
ag2175
asS'6/1/1999'
p7364
(lp7365
S'Gloversville Federal Savings'
p7366
aS'CNB Bancorp,Gloversville,NY'
p7367
asS'4/21/2006'
p7368
(lp7369
S'Citizen Development Co,MT'
p7370
ag249
asS'4/21/2000'
p7371
(lp7372
g4980
ag1054
asS'2/19/1997'
p7373
(lp7374
S'Port St Lucie Natl Bk Hldg,FL'
p7375
ag2806
asS'2/19/1993'
p7376
(lp7377
S'First Sunbelt Bankshares Inc'
p7378
ag2522
asS'2/19/1991'
p7379
(lp7380
S'Bank of Lexington and Trust,KY'
p7381
aS'Liberty National Bancorp'
p7382
asS'6/5/2012'
p7383
(lp7384
S'Sistersville Bancorp Inc'
p7385
ag60
asS'2/19/1998'
p7386
(lp7387
S'Jacobs Bank,Scottsboro,Alabama'
p7388
ag237
asS'8/14/1989'
p7389
(lp7390
S'First Banc Securities Inc'
p7391
aS'Integra Financial Corp'
p7392
asS'10/24/1994'
p7393
(lp7394
S'US Trust Corp,New York,NY'
p7395
ag5078
asS'2/25/2005'
p7396
(lp7397
S'Alliance Finl Corp,Harbert,MI'
p7398
ag3757
asS'2/25/2002'
p7399
(lp7400
S'Rowan Bancorp,China Grove,NC'
p7401
ag5771
asS'6/5/2014'
p7402
(lp7403
S'Harbor Bank Group Inc'
p7404
ag1506
asS'3/22/2000'
p7405
(lp7406
S'Estes Bank Corp,Estes Park,CO'
p7407
aS'Vail Banks Inc,Vail,Colorado'
p7408
asS'1/31/2014'
p7409
(lp7410
S'Mission Oaks Bancorp Inc'
p7411
aS'AltaPacific Bank'
p7412
asS'1/31/2013'
p7413
(lp7414
S'First National Bank of Baldwin'
p7415
aS'First Bancshares Inc,MS'
p7416
asS'3/22/2007'
p7417
(lp7418
S'Northwest Suburban Bancorp Inc'
p7419
ag3933
asS'3/22/2004'
p7420
(lp7421
S'Southern Community Bancorp,FL'
p7422
aS'First National Bankshares FL'
p7423
asS'1/9/2007'
p7424
(lp7425
S'Placer Sierra Bancshares,CA'
p7426
ag1357
asS'12/28/2005'
p7427
(lp7428
S'Standard Bank,Monterey Park,CA'
p7429
ag1438
asS'12/28/2009'
p7430
(lp7431
S'First Chester County Corp,PA'
p7432
aS'Tower Bancorp Inc'
p7433
asS'6/20/1997'
p7434
(lp7435
S'SparBank Inc,McHenry,Illinois'
p7436
ag408
asS'6/20/1994'
p7437
(lp7438
S'Southwest Bankers Inc'
p7439
ag514
asS'6/20/1995'
p7440
(lp7441
S'Capital Bancorp Inc'
p7442
ag293
asS'1/9/2008'
p7443
(lp7444
S'Shore Financial Corp,VA'
p7445
ag2959
asS'6/20/1991'
p7446
(lp7447
S'South Carolina National'
p7448
ag16
asS'6/5/1998'
p7449
(lp7450
S'Community Financial Corp'
p7451
ag96
asS'6/5/1992'
p7452
(lp7453
S'Key Centurion Bancshares,WV'
p7454
ag2487
asS'3/2/1988'
p7455
(lp7456
S'Peoples First Natl Bk & Tr, PA'
p7457
ag3173
asS'6/4/1993'
p7458
(lp7459
S'Western National Bancorp Inc'
p7460
ag412
asS'1/10/2007'
p7461
(lp7462
S'Bank of Richmond NA'
p7463
aS'Gateway Financial Holdings Inc'
p7464
asS'4/17/1989'
p7465
(lp7466
S'Nevada First Development Corp'
p7467
ag2391
asS'6/4/1996'
p7468
(lp7469
S'Seaway Finl Corp,St Clair,MI'
p7470
ag918
asS'1/10/2003'
p7471
(lp7472
S'First County Bk,Doylestown,PA'
p7473
ag3287
asS'1/19/2007'
p7474
(lp7475
S'Merrill Merchants Bancshares'
p7476
ag765
asS'6/4/1999'
p7477
(lp7478
S'American Pacific State Bank,CA'
p7479
ag92
asS'6/4/1998'
p7480
(lp7481
S'Peoples National Bank'
p7482
ag1531
asS'11/12/2014'
p7483
(lp7484
S'Susquehanna Bancshares Inc'
p7485
ag491
asS'11/13/1996'
p7486
(lp7487
S'Farrington Bk,N Brunswick,NJ'
p7488
ag1040
asS'11/13/1995'
p7489
(lp7490
S'Victoria Bankshares Inc'
p7491
ag1166
asS'11/9/2015'
p7492
(lp7493
S'Bk of Georgetown,Washington'
p7494
ag209
asS'8/14/2007'
p7495
(lp7496
S'Union Bankshares Co,Ellsworth,'
p7497
ag1542
asS'11/13/1998'
p7498
(lp7499
S'First Citizens Bancorp of AL'
p7500
ag131
asS'2/13/1997'
p7501
(lp7502
S'Founders Bank,Bryn Mawr,PA'
p7503
ag4
asS'4/14/1986'
p7504
(lp7505
S'First La Porte Financial, IN'
p7506
ag416
asS'4/14/1989'
p7507
(lp7508
S'First State Bank and Trust Co'
p7509
ag1102
asS'2/13/1998'
p7510
(lp7511
S'Olde Port Bank and Trust,NH'
p7512
ag723
asS'6/10/1998'
p7513
(lp7514
S'CSB Financial Corp,Tennessee'
p7515
ag690
asS'2/27/1997'
p7516
(lp7517
S'Citizens Natl Bk of Darlington'
p7518
ag1747
asS'2/27/1996'
p7519
(lp7520
S'ANB Financial Corp'
p7521
ag1669
asS'6/10/1997'
p7522
(lp7523
S'Jefferson Bankshares Inc,VA'
p7524
ag16
asS'6/10/1996'
p7525
(lp7526
S'Granville United Bk,Oxford,NC'
p7527
ag719
asS'2/27/1992'
p7528
(lp7529
S'Columbia Bank,Avondale,Arizona'
p7530
aS'Valley Natl Bk,Phoenix,AZ'
p7531
asS'6/10/1993'
p7532
(lp7533
S'First Performance Nat Bank'
p7534
ag514
asS'11/15/2013'
p7535
(lp7536
g1641
aS'Rockville Financial Inc'
p7537
asS'11/3/1989'
p7538
(lp7539
g7219
aS'First Illinois Corp, Evanston'
p7540
asS'8/19/1994'
p7541
(lp7542
S'White County Bank,Carmi,IL'
p7543
ag975
asS'8/19/1991'
p7544
(lp7545
S'F&M Financial Services Corp'
p7546
ag1885
asS'11/3/1983'
p7547
(lp7548
g320
aS'Mellon National Corp'
p7549
asS'2/26/2007'
p7550
(lp7551
S'FNB Financial Services Corp,NC'
p7552
ag3060
asS'5/1/2008'
p7553
(lp7554
S'Partners Financial Holdings'
p7555
aS'First Clover Leaf Finl Corp'
p7556
asS'2/26/2001'
p7557
(lp7558
S'Commercial Federal-MN Branches'
p7559
aS'HF Financial Corp'
p7560
asS'5/1/2002'
p7561
(lp7562
S'High Street Corp,Asheville,NC'
p7563
aS'Capital Bank Corp,Raleigh,NC'
p7564
asS'5/1/2001'
p7565
(lp7566
S'Southside Bancshares Corp'
p7567
aS'Allegiant Bancorp,St Louis,MO'
p7568
asS'5/1/2007'
p7569
(lp7570
S'Bank of Navasota NA,TX'
p7571
ag36
asS'10/21/2013'
p7572
(lp7573
S'Mission Community Bancorp'
p7574
ag851
asS'10/10/1989'
p7575
(lp7576
S'Monticello State Bank,Iowa'
p7577
aS'Iowa National Bankshares Corp'
p7578
asS'11/17/2014'
p7579
(lp7580
S'Valley Financial,Roanoke,VA'
p7581
ag1506
asS'1/4/1988'
p7582
(lp7583
S'Citizens Nat Bk,DownersGrove'
p7584
aS'Boulevard Bancorp Inc'
p7585
asS'9/2/1998'
p7586
(lp7587
S'Citizens Bancorp Inc,Tulsa,OK'
p7588
ag1761
asS'9/2/1992'
p7589
(lp7590
S'DCB Corp'
p7591
ag178
asS'9/2/1994'
p7592
(lp7593
S'Standard Bank & Trust Co,Dunn'
p7594
ag719
asS'8/6/2015'
p7595
(lp7596
S'Tradition Bancshares Inc'
p7597
ag815
asS'8/6/2014'
p7598
(lp7599
S'First of Huron Corp'
p7600
ag155
asS'5/28/2014'
p7601
(lp7602
S'Liberty Bancshares Inc,MO'
p7603
ag3177
asS'5/20/1986'
p7604
(lp7605
S'Farmers&Mrchnts Bk,Walterboro'
p7606
ag1159
asS'5/20/1985'
p7607
(lp7608
S'Midwest Commerce Corp'
p7609
ag477
asS'7/1/2014'
p7610
(lp7611
S'Ohio State Bank,Marion,Ohio'
p7612
ag6404
asS'9/14/2012'
p7613
(lp7614
S'Northwest Commercial Bank,WA'
p7615
ag6143
asS'6/29/2005'
p7616
(lp7617
S'1st State Bancorp Inc,NC'
p7618
ag7564
asS'10/9/1987'
p7619
(lp7620
S'Florida Coml Banks Inc, Miami'
p7621
ag56
asS'6/29/2001'
p7622
(lp7623
S'FABP Bancshares Inc'
p7624
ag1343
asS'5/9/2004'
p7625
(lp7626
S'Natl Commerce Finl Corp,TN'
p7627
ag72
asS'12/9/1994'
p7628
(lp7629
S'North Bay Bancorp(Westamerica)'
p7630
ag1897
asS'10/26/1989'
p7631
(lp7632
S'La Jolla Bancorp'
p7633
ag309
asS'12/8/2015'
p7634
(lp7635
S'MBT Bancshares Inc'
p7636
ag739
asS'12/9/1997'
p7637
(lp7638
S'Louisiana National Security'
p7639
ag461
asS'12/8/2011'
p7640
(lp7641
S'Highlands Bancshares Inc,TX'
p7642
aS'ViewPoint Financial Group Inc'
p7643
asS'11/24/1987'
p7644
(lp7645
S'Gary-Wheaton Corp'
p7646
ag601
asS'3/6/2014'
p7647
(lp7648
S'BCB Holding Co Inc'
p7649
ag7416
asS'12/9/1999'
p7650
(lp7651
S'Tarpon Financial Corp'
p7652
aS'Community National Bancorp'
p7653
asS'7/15/2004'
p7654
(lp7655
S'Heritage Finl Hldg Co,AL'
p7656
ag2118
asS'7/15/2002'
p7657
(lp7658
S'Bank of the Southwest,Dallas'
p7659
ag36
asS'5/24/1989'
p7660
(lp7661
S'Winnetka Bank,IL'
p7662
ag601
asS'3/1/2012'
p7663
(lp7664
g5984
ag465
asS'12/26/1990'
p7665
(lp7666
S'Marine Bank,Chicago,Illinois'
p7667
ag205
asS'9/28/1998'
p7668
(lp7669
S'Washington Indep Bancshares'
p7670
ag6143
asS'9/28/1995'
p7671
(lp7672
S'First Natl Bk of Lockport,IL'
p7673
ag3400
asS'9/28/1994'
p7674
(lp7675
S'Community State Bank,IL'
p7676
ag878
asS'5/14/2015'
p7677
(lp7678
S'America California Bank,CA'
p7679
ag3909
asS'8/31/2005'
p7680
(lp7681
S'Access Anytime Bancorp Inc,NM'
p7682
ag1492
asS'5/14/2013'
p7683
(lp7684
S'Mayflower Bancorp Inc'
p7685
ag1247
asS'1/18/1996'
p7686
(lp7687
S'Premier Financial Services'
p7688
aS'Northern Illinois Financial'
p7689
asS'3/21/2014'
p7690
(lp7691
S'Colonial Virginia Bank'
p7692
aS'Xenith Bankshares Inc'
p7693
asS'10/5/1989'
p7694
(lp7695
S'First National Bank of Cudahy'
p7696
ag1206
asS'1/18/1994'
p7697
(lp7698
S'Frankford Corp'
p7699
ag1014
asS'8/17/1994'
p7700
(lp7701
S'Bank of Western Massachusetts'
p7702
ag765
asS'5/2/2013'
p7703
(lp7704
S'The Prosperity Banking Co'
p7705
ag1080
asS'4/7/2015'
p7706
(lp7707
S'CapitalMark Bank & Trust'
p7708
ag510
asS'5/29/2015'
p7709
(lp7710
S'Premier Valley Bank,Fresno,CA'
p7711
ag1251
asS'9/30/2013'
p7712
(lp7713
S'Select Bancorp Inc'
p7714
aS'New Century Bancorp Inc,NC'
p7715
asS'12/29/1999'
p7716
(lp7717
S'Citizens Bank & Trust Co,PA'
p7718
ag495
asS'10/21/1999'
p7719
(lp7720
S'Village Financial Corp,NJ'
p7721
ag6850
asS'10/21/1998'
p7722
(lp7723
S'Wayne Bancorp,Jesup,Georgia'
p7724
aS'First Banking Co of Southeast'
p7725
asS'10/21/1993'
p7726
(lp7727
S'InvestArk Bankshares Inc'
p7728
ag245
asS'10/21/1992'
p7729
(lp7730
S'First City Bancorp of Texas'
p7731
aS'Texas Commerce Bancshares,TX'
p7732
asS'12/29/1993'
p7733
(lp7734
S'Guaranty Bancorp,Louisiana'
p7735
ag237
asS'10/21/1997'
p7736
(lp7737
S'CSB Bancorp,Petersburg,Indiana'
p7738
ag1088
asS'12/29/1997'
p7739
(lp7740
S'FP Bancorp,Escondidio,CA'
p7741
ag398
asS'7/21/1998'
p7742
(lp7743
S'Elverson National Bank'
p7744
ag1339
asS'7/21/1995'
p7745
(lp7746
S'Bank of Boston Corp,Boston,MA'
p7747
ag205
asS'7/21/1997'
p7748
(lp7749
S'Signet Bkg Corp,Richmond,VA'
p7750
ag56
asS'7/21/1992'
p7751
(lp7752
S'Denver National Bank,Denver,PA'
p7753
ag217
asS'5/4/2000'
p7754
(lp7755
S'Harbor Federal Bancorp Inc,MD'
p7756
ag1942
asS'5/4/2005'
p7757
(lp7758
S'PFS Bancorp Inc'
p7759
ag4626
asS'5/4/2007'
p7760
(lp7761
S'Greater Bay Bancorp,Palo Alto'
p7762
ag1357
asS'12/10/2012'
p7763
(lp7764
S'Coppermark Bancshares Inc'
p7765
ag815
asS'7/31/2015'
p7766
(lp7767
S'Canon Bank Corp'
p7768
ag249
asS'7/31/2014'
p7769
(lp7770
S'Intervest Bancshares Corp'
p7771
ag285
asS'3/11/2011'
p7772
(lp7773
S'Cameron Bancshares Inc'
p7774
ag1321
asS'3/11/2014'
p7775
(lp7776
S'Coastal Bankshares Inc'
p7777
ag1080
asS'10/28/1998'
p7778
(lp7779
S'First Coastal Bankshares Inc'
p7780
ag4427
asS'10/28/1991'
p7781
(lp7782
S'Manufacturers National Corp'
p7783
ag139
asS'10/28/1992'
p7784
(lp7785
g4919
ag3793
asS'10/28/1994'
p7786
(lp7787
S'Cleveland Federal Bank'
p7788
ag4427
asS'10/28/1996'
p7789
(lp7790
S'Premier Bankshs,Bluefield,VA'
p7791
ag32
asS'10/28/1997'
p7792
(lp7793
S'Peoples State Bank,PA'
p7794
aS'Community Banks Inc,PA'
p7795
asS'3/26/1991'
p7796
(lp7797
S'Farmers Exchange Bk,Kentucky'
p7798
ag844
asS'3/26/1993'
p7799
(lp7800
S'First Fed Svgs BK,Marianna,FL'
p7801
ag2074
asS'3/26/1992'
p7802
(lp7803
S'Theodore Roosevelt Natl Bank'
p7804
aS'Industrial Bk of Washington,DC'
p7805
asS'5/9/1994'
p7806
(lp7807
S'North American Bank Corp'
p7808
ag5475
asS'3/26/1997'
p7809
(lp7810
S'Goleta National Bank,Goleta,CA'
p7811
aS'Los Robles Bancorp,California'
p7812
asS'3/26/1996'
p7813
(lp7814
S'Country Bancshares Inc,IL'
p7815
ag2081
asS'2/28/1989'
p7816
(lp7817
S'Howard Bancorp,Burlington,VT'
p7818
ag5475
asS'3/26/1998'
p7819
(lp7820
S'Sumitomo Bank of California'
p7821
ag398
asS'1/24/2007'
p7822
(lp7823
S'Partners Bank of Texas'
p7824
ag1582
asS'12/18/2013'
p7825
(lp7826
S'South Street Financial Corp'
p7827
ag1506
asS'11/26/2014'
p7828
(lp7829
S'Pac Rim Bk,Honolulu,Hawaii'
p7830
aS'First Foundation Inc'
p7831
asS'12/16/1993'
p7832
(lp7833
S'Farmers Svgs Bk, Northwood OH'
p7834
ag2543
asS'12/16/1991'
p7835
(lp7836
S"People's Bk of Charles Town,WV"
p7837
ag2861
asS'12/16/1997'
p7838
(lp7839
S'Lanier Bank & Trust,Cumming,GA'
p7840
ag665
asS'12/16/1996'
p7841
(lp7842
S'First Bankshares,Hapeville,GA'
p7843
ag237
asS'12/16/1994'
p7844
(lp7845
S'Sparks State Bank,Sparks,MD'
p7846
ag1148
asS'4/26/2004'
p7847
(lp7848
S'Yolo Community Bank,CA'
p7849
ag4808
asS'12/16/1999'
p7850
(lp7851
S'First Savings Bancorp Inc,NC'
p7852
ag143
asS'12/16/1998'
p7853
(lp7854
S'Vermont Financial Services,VT'
p7855
ag765
asS'10/8/2012'
p7856
(lp7857
S'Alliance Financial Corp,NY'
p7858
ag1054
asS'11/4/2013'
p7859
(lp7860
g4893
aS'Independence Bk,Newport Beach'
p7861
asS'11/4/2011'
p7862
(lp7863
S'CKF Bancorp Inc,Danville,KY'
p7864
aS'Kentucky First Federal Bancorp'
p7865
asS'8/15/2013'
p7866
(lp7867
S'Firstbank Corp,Alma,Michigan'
p7868
aS'Mercantile Bank Corp'
p7869
asS'9/12/2005'
p7870
(lp7871
S'NorthStar Financial Corp,WA'
p7872
ag1578
asS'1/26/1996'
p7873
(lp7874
S'Charter Bancshares Inc'
p7875
ag1122
asS'4/27/1987'
p7876
(lp7877
S'Illinois Regional Bancorp,IL'
p7878
ag918
asS'4/27/1989'
p7879
(lp7880
g2754
ag293
asS'1/26/1999'
p7881
(lp7882
S'Little Falls Bancorp Inc'
p7883
ag1395
asS'1/26/1998'
p7884
(lp7885
S'Routt County National Bank'
p7886
ag398
asS'10/25/1999'
p7887
(lp7888
S'First Cmnty Bk of the Desert'
p7889
aS'Rancho Santa Fe National Bk,CA'
p7890
asS'5/2/1986'
p7891
(lp7892
S'Clinton County Bancorp,IN'
p7893
ag5681
asS'10/25/1995'
p7894
(lp7895
S'Gloucester County Bankshares'
p7896
ag217
asS'10/25/1994'
p7897
(lp7898
g1922
aS'Commercial Bancorp Inc'
p7899
asS'10/25/1991'
p7900
(lp7901
S'Valley Bancorp,Idaho Falls,ID'
p7902
ag2063
asS'6/16/2000'
p7903
(lp7904
S'Home Bancorp Inc,Fort Wayne,IN'
p7905
ag918
asS'8/23/2000'
p7906
(lp7907
S'BankFirst Corp'
p7908
ag491
asS'8/23/2001'
p7909
(lp7910
S'Kenwood Bancorp Inc'
p7911
ag4626
asS'1/31/2001'
p7912
(lp7913
S'Lamar Capital Corp'
p7914
ag679
asS'1/31/2002'
p7915
(lp7916
S'Hometown Bank of Villa Rica,'
p7917
ag1499
asS'3/27/2006'
p7918
(lp7919
S'James Monroe Bancorp Inc'
p7920
ag1148
asS'1/9/2014'
p7921
(lp7922
S'Ouachita Bancshares Corp'
p7923
ag4084
asS'3/29/1989'
p7924
(lp7925
S'Citizens Bank & Tr,Wartburg,TN'
p7926
ag293
asS'3/29/1985'
p7927
(lp7928
S'NS&T Bankshares,Washington,DC'
p7929
aS'United Virginia Bankshares Inc'
p7930
asS'12/3/2008'
p7931
(lp7932
S'Chevy Chase Bank FSB'
p7933
ag127
asS'9/29/1993'
p7934
(lp7935
S'Boulevard Bancorp Inc'
p7936
ag119
asS'9/29/1997'
p7937
(lp7938
S'Union State Bank,Payne,Ohio'
p7939
ag305
asS'9/29/1995'
p7940
(lp7941
S'First Nationwide-NY Brchs(10)'
p7942
ag487
asS'6/5/1986'
p7943
(lp7944
S'Andrews Bk&Tr,Andrews,SC'
p7945
ag1159
asS'12/3/2007'
p7946
(lp7947
S'Millennium Bank NA-Branches(2)'
p7948
ag5095
asS'7/22/1991'
p7949
(lp7950
S'First Natl Bk of Fayetteville'
p7951
ag506
asS'7/22/1992'
p7952
(lp7953
S'First Community Bancorp Inc'
p7954
ag205
asS'10/7/1998'
p7955
(lp7956
S'PNB Financial Group'
p7957
ag4786
asS'7/22/1994'
p7958
(lp7959
S'First State Bank,Wilmington,DE'
p7960
ag257
asS'10/7/1994'
p7961
(lp7962
S'Owego National Financial Corp'
p7963
ag1831
asS'7/22/1998'
p7964
(lp7965
S'St James Bancorp,Lutcher,LA'
p7966
ag237
asS'10/7/1996'
p7967
(lp7968
S'First Federal Savings Bank,KY'
p7969
ag975
asS'10/7/1992'
p7970
(lp7971
S'Cardinal Bancorp,Everett,PA'
p7972
ag383
asS'4/17/1996'
p7973
(lp7974
S'First Natl Bk of Clifton Forge'
p7975
ag4987
asS'4/17/1990'
p7976
(lp7977
S'Southern Bankshares,Beckley,WV'
p7978
ag2861
asS'8/26/1986'
p7979
(lp7980
S'South Suburban Bancorp,IL'
p7981
aS'Continental Illinois Corp'
p7982
asS'7/24/2000'
p7983
(lp7984
S'Community Independent Bank'
p7985
ag1339
asS'11/9/2007'
p7986
(lp7987
S'Omega Financial Corp,PA'
p7988
ag111
asS'11/9/2004'
p7989
(lp7990
S'NorCrown Bank,NJ'
p7991
ag375
asS'11/9/2005'
p7992
(lp7993
S'Gold Banc Corp Inc,Leawood,KS'
p7994
ag947
asS'2/27/1987'
p7995
(lp7996
S'Madison Natl Bank,Richmond,KY'
p7997
ag420
asS'6/10/1986'
p7998
(lp7999
S'Peoples Bk Westn PA,New Castle'
p8000
ag3283
asS'6/10/1987'
p8001
(lp8002
S'First Fidelity Bk,Rockville,MD'
p8003
ag6163
asS'6/10/1985'
p8004
(lp8005
g2077
aS'Marine Corp'
p8006
as.